(dp0
I1000
(dp1
I8
(dp2
I1000
(F4250131.0
I9207640
F3753.0
tp3
sI4000
(F4260157.0
I9207640
F3753.0
tp4
sS'train_labels_count'
p5
(lp6
I141
aI140
aI114
aI236
aI124
aI131
aI133
aI131
asI100
(F4259060.0
I9207640
F3753.0
tp7
sS'huffman_lengths'
p8
(lp9
(lp10
S'r'
p11
aS'\n'
p12
aS'i'
p13
aS'k'
p14
aS'v'
p15
aS'-'
p16
aS','
p17
aS'o'
p18
aS'.'
p19
aS'1'
p20
aS'0'
p21
aS'3'
p22
aS'2'
p23
aS'5'
p24
aS'4'
p25
aS'7'
p26
aS'6'
p27
aS'9'
p28
aS'8'
p29
aS':'
p30
aS't'
p31
aa(lp32
S'10'
p33
aS'13'
p34
aS'13'
p35
aS'12'
p36
ag29
ag26
ag27
aS'11'
p37
ag24
ag22
ag22
ag25
ag22
ag25
ag25
ag25
ag25
ag22
ag25
ag25
ag28
aa(lp38
S'10'
p39
aS'13'
p40
aS'13'
p41
aS'12'
p42
ag29
ag26
ag27
aS'11'
p43
ag25
ag22
ag25
ag22
ag22
ag25
ag22
ag25
ag25
ag25
ag25
ag24
ag28
aa(lp44
S'10'
p45
aS'13'
p46
aS'13'
p47
aS'12'
p48
ag29
ag26
ag27
aS'11'
p49
ag24
ag22
ag25
ag22
ag22
ag25
ag25
ag22
ag25
ag25
ag25
ag25
ag28
aa(lp50
S'10'
p51
aS'10'
p52
aS'10'
p53
aS'10'
p54
ag28
ag26
ag24
aS'10'
p55
ag25
ag22
ag22
ag22
ag22
ag25
ag25
ag25
ag25
ag25
ag25
ag27
aS'10'
p56
aa(lp57
S'10'
p58
aS'13'
p59
aS'13'
p60
aS'12'
p61
ag29
ag26
ag27
aS'11'
p62
ag25
ag22
ag22
ag25
ag22
ag25
ag25
ag25
ag22
ag25
ag25
ag24
ag28
aa(lp63
S'10'
p64
aS'13'
p65
aS'13'
p66
aS'12'
p67
ag29
ag26
ag27
aS'11'
p68
ag24
ag22
ag25
ag22
ag22
ag25
ag25
ag25
ag25
ag25
ag22
ag25
ag28
aa(lp69
S'10'
p70
aS'13'
p71
aS'13'
p72
aS'12'
p73
ag29
ag26
ag27
aS'11'
p74
ag24
ag22
ag22
ag22
ag22
ag25
ag25
ag25
ag25
ag25
ag25
ag25
ag28
aa(lp75
S'10'
p76
aS'13'
p77
aS'13'
p78
aS'12'
p79
ag29
ag26
ag27
aS'11'
p80
ag24
ag22
ag22
ag25
ag22
ag22
ag25
ag25
ag25
ag25
ag25
ag25
ag28
aassI16
(dp81
I1000
(F4245679.0
I9207640
F7513.0
tp82
sI4000
(F4255354.0
I9207640
F7513.0
tp83
sg5
(lp84
I63
aI105
aI75
aI90
aI52
aI48
aI75
aI47
aI112
aI45
aI69
aI74
aI94
aI78
aI59
aI64
asI100
(F4264997.0
I9207640
F7513.0
tp85
sg8
(lp86
(lp87
g11
ag12
ag13
ag14
ag15
ag16
ag17
ag18
ag19
ag20
ag21
ag22
ag23
ag24
ag25
ag26
ag27
ag28
ag29
ag30
ag31
aa(lp88
S'10'
p89
aS'13'
p90
aS'13'
p91
aS'12'
p92
ag29
ag26
ag27
aS'11'
p93
ag25
ag22
ag22
ag25
ag22
ag25
ag25
ag22
ag25
ag25
ag25
ag24
ag28
aa(lp94
S'10'
p95
aS'13'
p96
aS'13'
p97
aS'12'
p98
ag29
ag26
ag27
aS'11'
p99
ag25
ag22
ag22
ag22
ag22
ag25
ag25
ag25
ag25
ag25
ag25
ag24
ag28
aa(lp100
S'10'
p101
aS'13'
p102
aS'13'
p103
aS'12'
p104
ag29
ag26
ag27
aS'11'
p105
ag24
ag22
ag22
ag22
ag22
ag25
ag25
ag25
ag25
ag25
ag25
ag25
ag28
aa(lp106
S'10'
p107
aS'13'
p108
aS'13'
p109
aS'12'
p110
ag29
ag26
ag27
aS'11'
p111
ag25
ag22
ag22
ag25
ag22
ag25
ag25
ag25
ag25
ag25
ag22
ag24
ag28
aa(lp112
S'10'
p113
aS'13'
p114
aS'13'
p115
aS'12'
p116
ag29
ag26
ag27
aS'11'
p117
ag25
ag22
ag22
ag25
ag22
ag25
ag25
ag25
ag25
ag22
ag25
ag24
ag28
aa(lp118
S'10'
p119
aS'13'
p120
aS'13'
p121
aS'12'
p122
ag29
ag26
ag27
aS'11'
p123
ag24
ag22
ag25
ag22
ag22
ag25
ag25
ag25
ag25
ag25
ag22
ag25
ag28
aa(lp124
S'10'
p125
aS'13'
p126
aS'13'
p127
aS'12'
p128
ag29
ag26
ag27
aS'11'
p129
ag24
ag22
ag22
ag22
ag22
ag25
ag25
ag25
ag25
ag25
ag25
ag25
ag28
aa(lp130
S'10'
p131
aS'13'
p132
aS'13'
p133
aS'12'
p134
ag29
ag26
ag27
aS'11'
p135
ag24
ag22
ag25
ag22
ag22
ag25
ag25
ag25
ag25
ag22
ag25
ag25
ag28
aa(lp136
S'10'
p137
aS'13'
p138
aS'13'
p139
aS'12'
p140
ag29
ag26
ag27
aS'11'
p141
ag25
ag22
ag22
ag25
ag22
ag25
ag22
ag25
ag25
ag25
ag25
ag24
ag28
aa(lp142
S'10'
p143
aS'13'
p144
aS'13'
p145
aS'12'
p146
ag29
ag26
ag27
aS'11'
p147
ag24
ag22
ag25
ag22
ag22
ag25
ag25
ag25
ag22
ag25
ag25
ag25
ag28
aa(lp148
S'10'
p149
aS'13'
p150
aS'13'
p151
aS'12'
p152
ag29
ag26
ag27
aS'11'
p153
ag24
ag22
ag25
ag22
ag22
ag25
ag25
ag22
ag25
ag25
ag25
ag25
ag28
aa(lp154
S'10'
p155
aS'10'
p156
aS'10'
p157
aS'10'
p158
ag28
ag26
ag27
aS'10'
p159
ag25
ag22
ag22
ag22
ag22
ag25
ag25
ag25
ag25
ag25
ag25
ag24
aS'10'
p160
aa(lp161
S'10'
p162
aS'13'
p163
aS'13'
p164
aS'12'
p165
ag29
ag26
ag24
aS'11'
p166
ag25
ag22
ag22
ag25
ag22
ag22
ag25
ag25
ag25
ag25
ag25
ag27
ag28
aa(lp167
S'10'
p168
aS'13'
p169
aS'13'
p170
aS'12'
p171
ag29
ag26
ag27
aS'11'
p172
ag25
ag22
ag22
ag25
ag22
ag25
ag25
ag25
ag22
ag25
ag25
ag24
ag28
aa(lp173
S'10'
p174
aS'13'
p175
aS'13'
p176
aS'12'
p177
ag29
ag26
ag27
aS'11'
p178
ag24
ag22
ag25
ag22
ag22
ag25
ag22
ag25
ag25
ag25
ag25
ag25
ag28
aa(lp179
S'10'
p180
aS'13'
p181
aS'13'
p182
aS'12'
p183
ag29
ag26
ag27
aS'11'
p184
ag24
ag22
ag22
ag25
ag22
ag22
ag25
ag25
ag25
ag25
ag25
ag25
ag28
aassI2
(dp185
I1000
(F4265990.0
I9207640
F933.0
tp186
sI4000
(F4267564.0
I9207640
F933.0
tp187
sg5
(lp188
I711
aI439
asI100
(F4271935.0
I9207640
F933.0
tp189
sg8
(lp190
(lp191
g11
ag12
ag13
ag14
ag15
ag16
ag17
ag18
ag19
ag20
ag21
ag22
ag23
ag24
ag25
ag26
ag27
ag28
ag29
ag30
ag31
aa(lp192
S'10'
p193
aS'10'
p194
aS'10'
p195
aS'10'
p196
ag28
ag26
ag27
aS'10'
p197
ag25
ag22
ag22
ag22
ag22
ag25
ag25
ag25
ag25
ag25
ag25
ag24
aS'10'
p198
aa(lp199
S'10'
p200
aS'13'
p201
aS'13'
p202
aS'12'
p203
ag29
ag26
ag27
aS'11'
p204
ag24
ag22
ag22
ag22
ag22
ag25
ag25
ag25
ag25
ag25
ag25
ag25
ag28
aassI4
(dp205
I1000
(F4259206.0
I9207640
F1873.0
tp206
sI4000
(F4263174.0
I9207640
F1873.0
tp207
sg5
(lp208
I410
aI194
aI258
aI288
asI100
(F4267128.0
I9207640
F1873.0
tp209
sg8
(lp210
(lp211
g11
ag12
ag13
ag14
ag15
ag16
ag17
ag18
ag19
ag20
ag21
ag22
ag23
ag24
ag25
ag26
ag27
ag28
ag29
ag30
ag31
aa(lp212
S'10'
p213
aS'10'
p214
aS'10'
p215
aS'10'
p216
ag28
ag26
ag27
aS'10'
p217
ag25
ag22
ag22
ag22
ag22
ag25
ag25
ag25
ag25
ag25
ag25
ag24
aS'10'
p218
aa(lp219
S'10'
p220
aS'13'
p221
aS'13'
p222
aS'12'
p223
ag29
ag26
ag27
aS'11'
p224
ag25
ag22
ag22
ag25
ag22
ag22
ag25
ag25
ag25
ag25
ag25
ag24
ag28
aa(lp225
S'10'
p226
aS'13'
p227
aS'13'
p228
aS'12'
p229
ag29
ag26
ag27
aS'11'
p230
ag25
ag22
ag25
ag22
ag22
ag25
ag22
ag25
ag25
ag25
ag25
ag24
ag28
aa(lp231
S'10'
p232
aS'13'
p233
aS'13'
p234
aS'12'
p235
ag29
ag26
ag27
aS'11'
p236
ag24
ag22
ag22
ag22
ag22
ag25
ag25
ag25
ag25
ag25
ag25
ag25
ag28
aassI32
(dp237
I1000
(F4242783.0
I9207640
F15033.0
tp238
sI4000
(F4256544.0
I9207640
F15033.0
tp239
sg5
(lp240
I10
aI38
aI44
aI25
aI50
aI55
aI28
aI35
aI42
aI68
aI25
aI31
aI23
aI33
aI48
aI35
aI16
aI26
aI27
aI53
aI48
aI31
aI36
aI37
aI47
aI23
aI29
aI37
aI42
aI41
aI45
aI22
asI100
(F4266163.0
I9207640
F15033.0
tp241
sg8
(lp242
(lp243
g11
ag12
ag13
ag14
ag15
ag16
ag17
ag18
ag19
ag20
ag21
ag22
ag23
ag24
ag25
ag26
ag27
ag28
ag29
ag30
ag31
aa(lp244
S'10'
p245
aS'13'
p246
aS'13'
p247
aS'12'
p248
ag29
ag26
ag27
aS'11'
p249
ag24
ag25
ag25
ag25
ag25
ag22
ag22
ag25
ag22
ag25
ag25
ag22
ag28
aa(lp250
S'10'
p251
aS'13'
p252
aS'13'
p253
aS'12'
p254
ag29
ag26
ag27
aS'11'
p255
ag25
ag25
ag22
ag22
ag22
ag25
ag22
ag25
ag25
ag25
ag25
ag24
ag28
aa(lp256
S'10'
p257
aS'13'
p258
aS'13'
p259
aS'12'
p260
ag29
ag26
ag27
aS'11'
p261
ag25
ag22
ag22
ag25
ag22
ag25
ag25
ag25
ag25
ag22
ag25
ag24
ag28
aa(lp262
S'10'
p263
aS'13'
p264
aS'13'
p265
aS'12'
p266
ag29
ag26
ag27
aS'11'
p267
ag24
ag22
ag22
ag22
ag25
ag25
ag25
ag22
ag25
ag25
ag25
ag25
ag28
aa(lp268
S'10'
p269
aS'13'
p270
aS'13'
p271
aS'12'
p272
ag29
ag26
ag27
aS'11'
p273
ag25
ag22
ag22
ag25
ag22
ag25
ag25
ag25
ag22
ag25
ag25
ag24
ag28
aa(lp274
S'10'
p275
aS'13'
p276
aS'13'
p277
aS'12'
p278
ag29
ag26
ag24
aS'11'
p279
ag25
ag22
ag22
ag25
ag22
ag25
ag25
ag25
ag25
ag25
ag22
ag27
ag28
aa(lp280
S'10'
p281
aS'13'
p282
aS'13'
p283
aS'12'
p284
ag29
ag26
ag27
aS'11'
p285
ag24
ag22
ag25
ag25
ag22
ag25
ag25
ag25
ag25
ag22
ag25
ag22
ag28
aa(lp286
S'10'
p287
aS'13'
p288
aS'13'
p289
aS'12'
p290
ag29
ag26
ag27
aS'11'
p291
ag24
ag22
ag22
ag25
ag22
ag25
ag25
ag25
ag25
ag22
ag25
ag25
ag28
aa(lp292
S'10'
p293
aS'13'
p294
aS'13'
p295
aS'12'
p296
ag29
ag26
ag27
aS'11'
p297
ag24
ag22
ag25
ag22
ag22
ag25
ag25
ag25
ag22
ag25
ag25
ag25
ag28
aa(lp298
S'10'
p299
aS'13'
p300
aS'13'
p301
aS'12'
p302
ag29
ag26
ag27
aS'11'
p303
ag25
ag22
ag22
ag25
ag22
ag25
ag22
ag25
ag25
ag25
ag25
ag24
ag28
aa(lp304
S'10'
p305
aS'13'
p306
aS'13'
p307
aS'12'
p308
ag29
ag26
ag27
aS'11'
p309
ag25
ag22
ag22
ag25
ag22
ag22
ag25
ag25
ag25
ag25
ag25
ag24
ag28
aa(lp310
S'10'
p311
aS'13'
p312
aS'13'
p313
aS'12'
p314
ag29
ag26
ag27
aS'11'
p315
ag24
ag25
ag25
ag22
ag22
ag25
ag22
ag25
ag25
ag25
ag22
ag25
ag28
aa(lp316
S'10'
p317
aS'13'
p318
aS'13'
p319
aS'12'
p320
ag29
ag26
ag27
aS'11'
p321
ag24
ag22
ag25
ag22
ag25
ag22
ag22
ag25
ag25
ag25
ag25
ag25
ag28
aa(lp322
S'10'
p323
aS'13'
p324
aS'13'
p325
aS'12'
p326
ag29
ag26
ag27
aS'11'
p327
ag25
ag22
ag22
ag22
ag22
ag25
ag25
ag25
ag25
ag25
ag25
ag24
ag28
aa(lp328
S'10'
p329
aS'13'
p330
aS'13'
p331
aS'12'
p332
ag29
ag26
ag27
aS'11'
p333
ag25
ag22
ag22
ag25
ag22
ag25
ag25
ag22
ag25
ag25
ag25
ag24
ag28
aa(lp334
S'10'
p335
aS'13'
p336
aS'13'
p337
aS'12'
p338
ag29
ag26
ag27
aS'11'
p339
ag24
ag22
ag22
ag25
ag22
ag22
ag25
ag25
ag25
ag25
ag25
ag25
ag28
aa(lp340
S'10'
p341
aS'13'
p342
aS'13'
p343
aS'12'
p344
ag29
ag26
ag27
aS'11'
p345
ag24
ag22
ag25
ag22
ag22
ag25
ag22
ag25
ag25
ag25
ag25
ag25
ag28
aa(lp346
S'10'
p347
aS'13'
p348
aS'13'
p349
aS'12'
p350
ag29
ag26
ag27
aS'11'
p351
ag24
ag22
ag22
ag22
ag22
ag25
ag25
ag25
ag25
ag25
ag25
ag25
ag28
aa(lp352
S'10'
p353
aS'13'
p354
aS'13'
p355
aS'12'
p356
ag29
ag26
ag27
aS'11'
p357
ag24
ag22
ag25
ag22
ag22
ag25
ag25
ag22
ag25
ag25
ag25
ag25
ag28
aa(lp358
S'10'
p359
aS'13'
p360
aS'13'
p361
aS'12'
p362
ag29
ag26
ag27
aS'11'
p363
ag25
ag22
ag22
ag25
ag22
ag25
ag25
ag25
ag22
ag25
ag25
ag24
ag28
aa(lp364
S'10'
p365
aS'13'
p366
aS'13'
p367
aS'12'
p368
ag29
ag26
ag27
aS'11'
p369
ag25
ag22
ag22
ag22
ag22
ag25
ag25
ag25
ag25
ag25
ag25
ag24
ag28
aa(lp370
S'10'
p371
aS'13'
p372
aS'13'
p373
aS'12'
p374
ag29
ag26
ag27
aS'11'
p375
ag24
ag25
ag25
ag22
ag22
ag25
ag22
ag22
ag25
ag25
ag25
ag25
ag28
aa(lp376
S'10'
p377
aS'13'
p378
aS'13'
p379
aS'12'
p380
ag29
ag26
ag27
aS'11'
p381
ag25
ag22
ag22
ag25
ag22
ag22
ag25
ag25
ag25
ag25
ag25
ag24
ag28
aa(lp382
S'10'
p383
aS'13'
p384
aS'13'
p385
aS'12'
p386
ag29
ag26
ag27
aS'11'
p387
ag24
ag22
ag22
ag25
ag22
ag25
ag25
ag25
ag25
ag25
ag22
ag25
ag28
aa(lp388
S'10'
p389
aS'13'
p390
aS'13'
p391
aS'12'
p392
ag29
ag26
ag27
aS'11'
p393
ag25
ag22
ag22
ag25
ag22
ag25
ag22
ag25
ag25
ag25
ag25
ag24
ag28
aa(lp394
S'10'
p395
aS'13'
p396
aS'13'
p397
aS'12'
p398
ag29
ag26
ag27
aS'11'
p399
ag24
ag22
ag25
ag25
ag22
ag22
ag25
ag25
ag22
ag25
ag25
ag25
ag28
aa(lp400
S'10'
p401
aS'10'
p402
aS'10'
p403
aS'10'
p404
ag28
ag26
ag27
aS'10'
p405
ag25
ag22
ag22
ag22
ag22
ag25
ag25
ag25
ag25
ag25
ag25
ag24
aS'10'
p406
aa(lp407
S'10'
p408
aS'13'
p409
aS'13'
p410
aS'12'
p411
ag29
ag26
ag27
aS'11'
p412
ag24
ag22
ag22
ag25
ag25
ag22
ag22
ag25
ag25
ag25
ag25
ag25
ag28
aa(lp413
S'10'
p414
aS'13'
p415
aS'13'
p416
aS'12'
p417
ag29
ag26
ag27
aS'11'
p418
ag24
ag22
ag22
ag25
ag22
ag25
ag22
ag25
ag25
ag25
ag25
ag25
ag28
aa(lp419
S'10'
p420
aS'13'
p421
aS'13'
p422
aS'12'
p423
ag29
ag26
ag27
aS'11'
p424
ag25
ag22
ag22
ag25
ag22
ag25
ag25
ag25
ag25
ag22
ag25
ag24
ag28
aa(lp425
S'10'
p426
aS'13'
p427
aS'13'
p428
aS'12'
p429
ag29
ag26
ag24
aS'11'
p430
ag25
ag22
ag22
ag25
ag22
ag22
ag25
ag25
ag25
ag25
ag25
ag27
ag28
aa(lp431
S'10'
p432
aS'13'
p433
aS'13'
p434
aS'12'
p435
ag29
ag26
ag24
aS'11'
p436
ag25
ag22
ag25
ag22
ag22
ag22
ag25
ag25
ag25
ag25
ag25
ag27
ag28
aasssI4000
(dp437
I8
(dp438
I1000
(F4254929.0
I9207640
F3718.0
tp439
sI4000
(F4259910.0
I9207640
F3718.0
tp440
sg5
(lp441
I19
aI34
aI65
aI26
aI20
aI44
aI22
aI57
asI100
(F4265819.0
I9207640
F3718.0
tp442
sg8
(lp443
(lp444
g11
ag12
ag13
ag14
ag15
ag16
ag17
ag18
ag19
ag20
ag21
ag22
ag23
ag24
ag25
ag26
ag27
ag28
ag29
ag30
ag31
aa(lp445
S'10'
p446
aS'10'
p447
aS'10'
p448
aS'10'
p449
ag28
ag26
ag27
aS'10'
p450
ag24
ag22
ag25
ag22
ag22
ag25
ag25
ag25
ag25
ag25
ag22
ag25
aS'10'
p451
aa(lp452
S'10'
p453
aS'10'
p454
aS'10'
p455
aS'10'
p456
ag28
ag26
ag27
aS'10'
p457
ag25
ag22
ag22
ag25
ag22
ag25
ag25
ag25
ag22
ag25
ag25
ag24
aS'10'
p458
aa(lp459
S'10'
p460
aS'13'
p461
aS'13'
p462
aS'12'
p463
ag29
ag26
ag27
aS'11'
p464
ag24
ag22
ag22
ag22
ag22
ag25
ag25
ag25
ag25
ag25
ag25
ag25
ag28
aa(lp465
S'10'
p466
aS'10'
p467
aS'10'
p468
aS'10'
p469
ag28
ag26
ag27
aS'10'
p470
ag25
ag22
ag22
ag25
ag22
ag22
ag25
ag25
ag25
ag25
ag25
ag24
aS'10'
p471
aa(lp472
S'10'
p473
aS'10'
p474
aS'10'
p475
aS'10'
p476
ag28
ag26
ag27
aS'10'
p477
ag24
ag22
ag25
ag25
ag22
ag25
ag25
ag22
ag22
ag25
ag25
ag25
aS'10'
p478
aa(lp479
S'10'
p480
aS'10'
p481
aS'10'
p482
aS'10'
p483
ag28
ag26
ag27
aS'10'
p484
ag25
ag22
ag22
ag25
ag22
ag25
ag25
ag25
ag25
ag22
ag25
ag24
aS'10'
p485
aa(lp486
S'10'
p487
aS'10'
p488
aS'10'
p489
aS'10'
p490
ag28
ag26
ag27
aS'10'
p491
ag24
ag22
ag22
ag22
ag22
ag25
ag25
ag25
ag25
ag25
ag25
ag25
aS'10'
p492
aa(lp493
S'10'
p494
aS'13'
p495
aS'13'
p496
aS'12'
p497
ag29
ag26
ag27
aS'11'
p498
ag25
ag22
ag25
ag22
ag22
ag25
ag22
ag25
ag25
ag25
ag25
ag24
ag28
aassI16
(dp499
I1000
(F4251329.0
I9207640
F7408.0
tp500
sI4000
(F4256021.0
I9207640
F7408.0
tp501
sg5
(lp502
I19
aI32
aI11
aI14
aI13
aI11
aI13
aI28
aI13
aI25
aI15
aI31
aI18
aI9
aI19
aI16
asI100
(F4270366.0
I9207640
F7408.0
tp503
sg8
(lp504
(lp505
g11
ag12
ag13
ag14
ag15
ag16
ag17
ag18
ag19
ag20
ag21
ag22
ag23
ag24
ag25
ag26
ag27
ag28
ag29
ag30
ag31
aa(lp506
S'10'
p507
aS'10'
p508
aS'10'
p509
aS'10'
p510
ag28
ag26
ag27
aS'10'
p511
ag24
ag22
ag25
ag22
ag22
ag25
ag22
ag25
ag25
ag25
ag25
ag25
aS'10'
p512
aa(lp513
S'10'
p514
aS'10'
p515
aS'10'
p516
aS'10'
p517
ag28
ag26
ag27
aS'10'
p518
ag24
ag22
ag22
ag22
ag22
ag25
ag25
ag25
ag25
ag25
ag25
ag25
aS'10'
p519
aa(lp520
S'10'
p521
aS'10'
p522
aS'10'
p523
aS'10'
p524
ag28
ag26
ag27
aS'10'
p525
ag24
ag22
ag25
ag25
ag22
ag25
ag25
ag22
ag22
ag25
ag25
ag25
aS'10'
p526
aa(lp527
S'10'
p528
aS'10'
p529
aS'10'
p530
aS'10'
p531
ag28
ag26
ag27
aS'10'
p532
ag24
ag22
ag25
ag22
ag22
ag25
ag25
ag25
ag25
ag25
ag22
ag25
aS'10'
p533
aa(lp534
S'10'
p535
aS'10'
p536
aS'10'
p537
aS'10'
p538
ag28
ag26
ag27
aS'10'
p539
ag25
ag22
ag25
ag22
ag22
ag22
ag25
ag25
ag25
ag25
ag25
ag24
aS'10'
p540
aa(lp541
S'10'
p542
aS'10'
p543
aS'10'
p544
aS'10'
p545
ag28
ag26
ag24
aS'10'
p546
ag25
ag22
ag22
ag25
ag22
ag22
ag25
ag25
ag25
ag25
ag25
ag27
aS'10'
p547
aa(lp548
S'10'
p549
aS'10'
p550
aS'10'
p551
aS'10'
p552
ag28
ag26
ag27
aS'10'
p553
ag24
ag22
ag25
ag22
ag22
ag22
ag25
ag25
ag25
ag25
ag25
ag25
aS'10'
p554
aa(lp555
S'10'
p556
aS'10'
p557
aS'10'
p558
aS'10'
p559
ag28
ag26
ag27
aS'10'
p560
ag25
ag22
ag22
ag25
ag22
ag25
ag25
ag25
ag22
ag25
ag25
ag24
aS'10'
p561
aa(lp562
S'10'
p563
aS'10'
p564
aS'10'
p565
aS'10'
p566
ag28
ag26
ag27
aS'10'
p567
ag24
ag22
ag25
ag22
ag22
ag25
ag25
ag25
ag25
ag22
ag25
ag25
aS'10'
p568
aa(lp569
S'10'
p570
aS'10'
p571
aS'10'
p572
aS'10'
p573
ag28
ag26
ag27
aS'10'
p574
ag24
ag22
ag22
ag25
ag22
ag25
ag25
ag25
ag25
ag22
ag25
ag25
aS'10'
p575
aa(lp576
S'10'
p577
aS'10'
p578
aS'10'
p579
aS'10'
p580
ag28
ag26
ag27
aS'10'
p581
ag24
ag22
ag25
ag25
ag22
ag22
ag25
ag22
ag25
ag25
ag25
ag25
aS'10'
p582
aa(lp583
S'10'
p584
aS'10'
p585
aS'10'
p586
aS'10'
p587
ag28
ag26
ag27
aS'10'
p588
ag25
ag22
ag25
ag22
ag22
ag25
ag22
ag25
ag25
ag25
ag25
ag24
aS'10'
p589
aa(lp590
S'10'
p591
aS'10'
p592
aS'10'
p593
aS'10'
p594
ag28
ag26
ag27
aS'10'
p595
ag24
ag22
ag22
ag22
ag22
ag25
ag25
ag25
ag25
ag25
ag25
ag25
aS'10'
p596
aa(lp597
S'10'
p598
aS'10'
p599
aS'10'
p600
aS'10'
p601
ag28
ag26
ag24
aS'10'
p602
ag25
ag22
ag22
ag22
ag22
ag25
ag25
ag25
ag25
ag25
ag25
ag27
aS'10'
p603
aa(lp604
S'10'
p605
aS'10'
p606
aS'10'
p607
aS'10'
p608
ag28
ag26
ag27
aS'10'
p609
ag25
ag22
ag22
ag25
ag22
ag25
ag25
ag25
ag25
ag22
ag25
ag24
aS'10'
p610
aa(lp611
S'10'
p612
aS'10'
p613
aS'10'
p614
aS'10'
p615
ag28
ag26
ag27
aS'10'
p616
ag24
ag22
ag25
ag22
ag22
ag25
ag22
ag25
ag25
ag25
ag25
ag25
aS'10'
p617
aassI2
(dp618
I1000
(F4265812.0
I9207640
F933.0
tp619
sI4000
(F4267155.0
I9207640
F933.0
tp620
sg5
(lp621
I160
aI127
asI100
(F4271847.0
I9207640
F933.0
tp622
sg8
(lp623
(lp624
g11
ag12
ag13
ag14
ag15
ag16
ag17
ag18
ag19
ag20
ag21
ag22
ag23
ag24
ag25
ag26
ag27
ag28
ag29
ag30
ag31
aa(lp625
S'10'
p626
aS'10'
p627
aS'10'
p628
aS'10'
p629
ag28
ag26
ag27
aS'10'
p630
ag25
ag22
ag22
ag22
ag22
ag25
ag25
ag25
ag25
ag25
ag25
ag24
aS'10'
p631
aa(lp632
S'10'
p633
aS'13'
p634
aS'13'
p635
aS'12'
p636
ag29
ag26
ag27
aS'11'
p637
ag24
ag22
ag22
ag22
ag22
ag25
ag25
ag25
ag25
ag25
ag25
ag25
ag28
aassI4
(dp638
I1000
(F4263276.0
I9207640
F1873.0
tp639
sI4000
(F4265058.0
I9207640
F1873.0
tp640
sg5
(lp641
I59
aI96
aI74
aI58
asI100
(F4276704.0
I9207640
F1873.0
tp642
sg8
(lp643
(lp644
g11
ag12
ag13
ag14
ag15
ag16
ag17
ag18
ag19
ag20
ag21
ag22
ag23
ag24
ag25
ag26
ag27
ag28
ag29
ag30
ag31
aa(lp645
S'10'
p646
aS'13'
p647
aS'13'
p648
aS'12'
p649
ag29
ag26
ag27
aS'11'
p650
ag25
ag22
ag25
ag22
ag22
ag25
ag22
ag25
ag25
ag25
ag25
ag24
ag28
aa(lp651
S'10'
p652
aS'13'
p653
aS'13'
p654
aS'12'
p655
ag29
ag26
ag27
aS'11'
p656
ag24
ag22
ag22
ag22
ag22
ag25
ag25
ag25
ag25
ag25
ag25
ag25
ag28
aa(lp657
S'10'
p658
aS'13'
p659
aS'13'
p660
aS'12'
p661
ag29
ag26
ag27
aS'11'
p662
ag25
ag22
ag22
ag22
ag22
ag25
ag25
ag25
ag25
ag25
ag25
ag24
ag28
aa(lp663
S'10'
p664
aS'10'
p665
aS'10'
p666
aS'10'
p667
ag28
ag26
ag27
aS'10'
p668
ag25
ag22
ag22
ag22
ag22
ag25
ag25
ag25
ag25
ag25
ag25
ag24
aS'10'
p669
aassI32
(dp670
I1000
(F4245308.0
I9207640
F14938.0
tp671
sI4000
(F4251016.0
I9207640
F14938.0
tp672
sg5
(lp673
I10
aI15
aI8
aI8
aI14
aI7
aI14
aI5
aI5
aI14
aI6
aI7
aI22
aI13
aI9
aI10
aI6
aI7
aI9
aI3
aI10
aI13
aI11
aI4
aI12
aI5
aI4
aI9
aI8
aI5
aI7
aI7
asI100
(F4270302.0
I9207640
F14938.0
tp674
sg8
(lp675
(lp676
g11
ag12
ag13
ag14
ag15
ag16
ag17
ag18
ag19
ag20
ag21
ag22
ag23
ag24
ag25
ag26
ag27
ag28
ag29
ag30
ag31
aa(lp677
S'10'
p678
aS'10'
p679
aS'10'
p680
aS'10'
p681
ag28
ag26
ag27
aS'10'
p682
ag25
ag22
ag22
ag25
ag22
ag25
ag25
ag25
ag25
ag22
ag25
ag24
aS'10'
p683
aa(lp684
S'10'
p685
aS'10'
p686
aS'10'
p687
aS'10'
p688
ag28
ag26
ag27
aS'10'
p689
ag24
ag22
ag22
ag22
ag22
ag25
ag25
ag25
ag25
ag25
ag25
ag25
aS'10'
p690
aa(lp691
S'10'
p692
aS'13'
p693
aS'13'
p694
aS'12'
p695
ag29
ag26
ag27
aS'11'
p696
ag25
ag22
ag22
ag25
ag22
ag25
ag25
ag25
ag25
ag22
ag25
ag24
ag28
aa(lp697
S'10'
p698
aS'13'
p699
aS'13'
p700
aS'12'
p701
ag29
ag26
ag27
aS'11'
p702
ag25
ag22
ag22
ag22
ag22
ag25
ag25
ag25
ag25
ag25
ag25
ag24
ag28
aa(lp703
S'10'
p704
aS'10'
p705
aS'10'
p706
aS'10'
p707
ag28
ag26
ag27
aS'10'
p708
ag25
ag22
ag22
ag25
ag22
ag25
ag25
ag25
ag22
ag25
ag25
ag24
aS'10'
p709
aa(lp710
S'10'
p711
aS'13'
p712
aS'13'
p713
aS'12'
p714
ag29
ag26
ag24
aS'11'
p715
ag25
ag22
ag25
ag22
ag22
ag25
ag25
ag25
ag22
ag25
ag25
ag27
ag28
aa(lp716
S'10'
p717
aS'10'
p718
aS'10'
p719
aS'10'
p720
ag28
ag26
ag27
aS'10'
p721
ag25
ag22
ag22
ag25
ag22
ag22
ag25
ag25
ag25
ag25
ag25
ag24
aS'10'
p722
aa(lp723
S'10'
p724
aS'10'
p725
aS'10'
p726
aS'10'
p727
ag28
ag26
ag27
aS'10'
p728
ag24
ag22
ag25
ag22
ag22
ag25
ag25
ag25
ag25
ag25
ag22
ag25
aS'10'
p729
aa(lp730
S'11'
p731
aS'11'
p732
aS'11'
p733
aS'11'
p734
aS'10'
p735
ag29
ag26
aS'11'
p736
ag24
ag22
ag25
ag22
ag22
ag22
ag25
ag25
ag25
ag22
ag25
ag27
aS'11'
p737
aa(lp738
S'10'
p739
aS'10'
p740
aS'10'
p741
aS'10'
p742
ag28
ag26
ag27
aS'10'
p743
ag24
ag22
ag22
ag22
ag22
ag25
ag25
ag25
ag25
ag25
ag25
ag25
aS'10'
p744
aa(lp745
S'10'
p746
aS'13'
p747
aS'13'
p748
aS'12'
p749
ag29
ag26
ag27
aS'11'
p750
ag24
ag22
ag25
ag22
ag22
ag25
ag22
ag25
ag25
ag25
ag25
ag25
ag28
aa(lp751
S'10'
p752
aS'13'
p753
aS'13'
p754
aS'12'
p755
ag29
ag26
ag27
aS'11'
p756
ag25
ag22
ag25
ag22
ag22
ag25
ag25
ag25
ag25
ag25
ag22
ag24
ag28
aa(lp757
S'10'
p758
aS'10'
p759
aS'10'
p760
aS'10'
p761
ag28
ag26
ag27
aS'10'
p762
ag25
ag22
ag22
ag22
ag25
ag25
ag22
ag25
ag25
ag25
ag25
ag24
aS'10'
p763
aa(lp764
S'10'
p765
aS'10'
p766
aS'10'
p767
aS'10'
p768
ag28
ag26
ag27
aS'10'
p769
ag24
ag22
ag22
ag25
ag22
ag25
ag22
ag25
ag25
ag25
ag25
ag25
aS'10'
p770
aa(lp771
S'10'
p772
aS'13'
p773
aS'13'
p774
aS'12'
p775
ag29
ag26
ag27
aS'11'
p776
ag25
ag22
ag25
ag22
ag22
ag25
ag22
ag25
ag25
ag25
ag25
ag24
ag28
aa(lp777
S'10'
p778
aS'10'
p779
aS'10'
p780
aS'10'
p781
ag28
ag26
ag27
aS'10'
p782
ag24
ag22
ag25
ag22
ag22
ag25
ag22
ag25
ag25
ag25
ag25
ag25
aS'10'
p783
aa(lp784
S'10'
p785
aS'13'
p786
aS'13'
p787
aS'12'
p788
ag29
ag26
ag27
aS'11'
p789
ag24
ag22
ag25
ag25
ag22
ag22
ag25
ag22
ag25
ag25
ag25
ag25
ag28
aa(lp790
S'10'
p791
aS'13'
p792
aS'13'
p793
aS'12'
p794
ag29
ag26
ag27
aS'11'
p795
ag24
ag25
ag25
ag22
ag22
ag25
ag22
ag25
ag25
ag25
ag22
ag25
ag28
aa(lp796
S'10'
p797
aS'13'
p798
aS'13'
p799
aS'12'
p800
ag29
ag26
ag27
aS'11'
p801
ag24
ag22
ag25
ag22
ag22
ag25
ag25
ag25
ag25
ag25
ag22
ag25
ag28
aa(lp802
S'10'
p803
aS'13'
p804
aS'13'
p805
aS'12'
p806
ag29
ag26
ag27
aS'11'
p807
ag24
ag22
ag25
ag25
ag22
ag25
ag22
ag22
ag25
ag25
ag25
ag25
ag28
aa(lp808
S'10'
p809
aS'10'
p810
aS'10'
p811
aS'10'
p812
ag28
ag26
ag27
aS'10'
p813
ag25
ag22
ag22
ag25
ag22
ag25
ag22
ag25
ag25
ag25
ag25
ag24
aS'10'
p814
aa(lp815
S'10'
p816
aS'10'
p817
aS'10'
p818
aS'10'
p819
ag28
ag26
ag27
aS'10'
p820
ag25
ag22
ag22
ag25
ag22
ag25
ag25
ag25
ag25
ag25
ag22
ag24
aS'10'
p821
aa(lp822
S'10'
p823
aS'10'
p824
aS'10'
p825
aS'10'
p826
ag28
ag26
ag27
aS'10'
p827
ag24
ag22
ag22
ag25
ag22
ag22
ag25
ag25
ag25
ag25
ag25
ag25
aS'10'
p828
aa(lp829
S'10'
p830
aS'13'
p831
aS'13'
p832
aS'12'
p833
ag29
ag26
ag27
aS'11'
p834
ag24
ag22
ag25
ag25
ag22
ag22
ag25
ag25
ag22
ag25
ag25
ag25
ag28
aa(lp835
S'10'
p836
aS'10'
p837
aS'10'
p838
aS'10'
p839
ag28
ag26
ag27
aS'10'
p840
ag24
ag22
ag22
ag22
ag22
ag25
ag25
ag25
ag25
ag25
ag25
ag25
aS'10'
p841
aa(lp842
S'10'
p843
aS'10'
p844
aS'10'
p845
aS'10'
p846
ag28
ag26
ag27
aS'10'
p847
ag25
ag22
ag22
ag22
ag22
ag25
ag25
ag25
ag25
ag25
ag25
ag24
aS'10'
p848
aa(lp849
S'10'
p850
aS'13'
p851
aS'13'
p852
aS'12'
p853
ag29
ag26
ag27
aS'11'
p854
ag24
ag22
ag25
ag22
ag22
ag25
ag25
ag22
ag25
ag25
ag25
ag25
ag28
aa(lp855
S'10'
p856
aS'13'
p857
aS'13'
p858
aS'12'
p859
ag29
ag26
ag27
aS'11'
p860
ag24
ag22
ag22
ag25
ag25
ag25
ag25
ag25
ag22
ag22
ag25
ag25
ag28
aa(lp861
S'10'
p862
aS'13'
p863
aS'13'
p864
aS'12'
p865
ag29
ag26
ag24
aS'11'
p866
ag25
ag22
ag25
ag25
ag22
ag22
ag25
ag25
ag22
ag25
ag25
ag27
ag28
aa(lp867
S'10'
p868
aS'10'
p869
aS'10'
p870
aS'10'
p871
ag28
ag26
ag27
aS'10'
p872
ag24
ag22
ag25
ag25
ag22
ag25
ag25
ag22
ag22
ag25
ag25
ag25
aS'10'
p873
aa(lp874
S'10'
p875
aS'13'
p876
aS'13'
p877
aS'12'
p878
ag29
ag26
ag27
aS'11'
p879
ag24
ag25
ag25
ag22
ag22
ag22
ag25
ag22
ag25
ag25
ag25
ag25
ag28
aa(lp880
S'10'
p881
aS'13'
p882
aS'13'
p883
aS'12'
p884
ag29
ag26
ag27
aS'11'
p885
ag25
ag22
ag22
ag25
ag22
ag25
ag22
ag25
ag25
ag25
ag25
ag24
ag28
aasssI100
(dp886
I8
(dp887
I1000
(F4262605.0
I9207640
F3718.0
tp888
sI4000
(F4268646.0
I9207640
F3718.0
tp889
sg5
(lp890
I1282
aI1688
aI1496
aI1287
aI1485
aI1388
aI1414
aI1469
asI100
(F4274863.0
I9207640
F3718.0
tp891
sg8
(lp892
(lp893
g11
ag12
ag13
ag14
ag15
ag16
ag17
ag18
ag19
ag20
ag21
ag22
ag23
ag24
ag25
ag26
ag27
ag28
ag29
ag30
ag31
aa(lp894
S'10'
p895
aS'13'
p896
aS'13'
p897
aS'12'
p898
ag29
ag26
ag27
aS'11'
p899
ag24
ag22
ag25
ag22
ag22
ag25
ag25
ag25
ag25
ag25
ag22
ag25
ag28
aa(lp900
S'10'
p901
aS'10'
p902
aS'10'
p903
aS'10'
p904
ag28
ag26
ag27
aS'10'
p905
ag25
ag22
ag22
ag25
ag22
ag25
ag25
ag25
ag25
ag22
ag25
ag24
aS'10'
p906
aa(lp907
S'10'
p908
aS'10'
p909
aS'10'
p910
aS'10'
p911
ag28
ag26
ag27
aS'10'
p912
ag24
ag22
ag25
ag22
ag22
ag25
ag22
ag25
ag25
ag25
ag25
ag25
aS'10'
p913
aa(lp914
S'10'
p915
aS'13'
p916
aS'13'
p917
aS'12'
p918
ag29
ag26
ag27
aS'11'
p919
ag24
ag22
ag25
ag25
ag22
ag25
ag25
ag22
ag22
ag25
ag25
ag25
ag28
aa(lp920
S'10'
p921
aS'10'
p922
aS'10'
p923
aS'10'
p924
ag28
ag26
ag27
aS'10'
p925
ag24
ag22
ag22
ag22
ag22
ag25
ag25
ag25
ag25
ag25
ag25
ag25
aS'10'
p926
aa(lp927
S'10'
p928
aS'10'
p929
aS'10'
p930
aS'10'
p931
ag28
ag26
ag27
aS'10'
p932
ag24
ag22
ag22
ag25
ag22
ag22
ag25
ag25
ag25
ag25
ag25
ag25
aS'10'
p933
aa(lp934
S'10'
p935
aS'10'
p936
aS'10'
p937
aS'10'
p938
ag28
ag26
ag27
aS'10'
p939
ag25
ag22
ag22
ag22
ag22
ag25
ag25
ag25
ag25
ag25
ag25
ag24
aS'10'
p940
aa(lp941
S'10'
p942
aS'10'
p943
aS'10'
p944
aS'10'
p945
ag28
ag26
ag27
aS'10'
p946
ag25
ag22
ag22
ag22
ag22
ag25
ag25
ag25
ag25
ag25
ag25
ag24
aS'10'
p947
aassI16
(dp948
I1000
(F4255412.0
I9207640
F7480.0
tp949
sI4000
(F4268343.0
I9207640
F7480.0
tp950
sg5
(lp951
I865
aI674
aI587
aI813
aI888
aI903
aI477
aI591
aI772
aI767
aI713
aI798
aI764
aI609
aI752
aI536
asI100
(F4264353.0
I9207640
F7480.0
tp952
sg8
(lp953
(lp954
g11
ag12
ag13
ag14
ag15
ag16
ag17
ag18
ag19
ag20
ag21
ag22
ag23
ag24
ag25
ag26
ag27
ag28
ag29
ag30
ag31
aa(lp955
S'10'
p956
aS'13'
p957
aS'13'
p958
aS'12'
p959
ag29
ag26
ag27
aS'11'
p960
ag24
ag22
ag22
ag25
ag22
ag25
ag25
ag25
ag25
ag25
ag22
ag25
ag28
aa(lp961
S'10'
p962
aS'13'
p963
aS'13'
p964
aS'12'
p965
ag29
ag26
ag27
aS'11'
p966
ag25
ag22
ag22
ag25
ag22
ag25
ag25
ag25
ag22
ag25
ag25
ag24
ag28
aa(lp967
S'10'
p968
aS'10'
p969
aS'10'
p970
aS'10'
p971
ag28
ag26
ag27
aS'10'
p972
ag24
ag25
ag25
ag22
ag23
ag25
ag25
ag25
ag25
ag25
ag25
ag25
aS'10'
p973
aa(lp974
S'10'
p975
aS'13'
p976
aS'13'
p977
aS'12'
p978
ag29
ag26
ag27
aS'11'
p979
ag24
ag22
ag22
ag25
ag22
ag25
ag25
ag25
ag25
ag22
ag25
ag25
ag28
aa(lp980
S'10'
p981
aS'13'
p982
aS'13'
p983
aS'12'
p984
ag29
ag26
ag27
aS'11'
p985
ag24
ag22
ag22
ag25
ag22
ag22
ag25
ag25
ag25
ag25
ag25
ag25
ag28
aa(lp986
S'10'
p987
aS'13'
p988
aS'13'
p989
aS'12'
p990
ag29
ag26
ag24
aS'11'
p991
ag25
ag22
ag22
ag22
ag22
ag25
ag25
ag25
ag25
ag25
ag25
ag27
ag28
aa(lp992
S'10'
p993
aS'10'
p994
aS'10'
p995
aS'10'
p996
ag28
ag26
ag27
aS'10'
p997
ag24
ag22
ag25
ag25
ag25
ag22
ag22
ag25
ag22
ag25
ag25
ag25
aS'10'
p998
aa(lp999
S'10'
p1000
aS'10'
p1001
aS'10'
p1002
aS'10'
p1003
ag28
ag26
ag27
aS'10'
p1004
ag24
ag22
ag25
ag23
ag25
ag25
ag25
ag25
ag25
ag25
ag25
ag25
aS'10'
p1005
aa(lp1006
S'10'
p1007
aS'13'
p1008
aS'13'
p1009
aS'12'
p1010
ag29
ag26
ag27
aS'11'
p1011
ag24
ag22
ag25
ag22
ag22
ag25
ag22
ag25
ag25
ag25
ag25
ag25
ag28
aa(lp1012
S'10'
p1013
aS'10'
p1014
aS'10'
p1015
aS'10'
p1016
ag28
ag26
ag27
aS'10'
p1017
ag25
ag22
ag22
ag22
ag22
ag25
ag25
ag25
ag25
ag25
ag25
ag24
aS'10'
p1018
aa(lp1019
S'10'
p1020
aS'13'
p1021
aS'13'
p1022
aS'12'
p1023
ag29
ag26
ag24
aS'11'
p1024
ag25
ag22
ag25
ag22
ag22
ag25
ag25
ag22
ag25
ag25
ag25
ag27
ag28
aa(lp1025
S'10'
p1026
aS'13'
p1027
aS'13'
p1028
aS'12'
p1029
ag29
ag26
ag27
aS'11'
p1030
ag25
ag22
ag22
ag25
ag25
ag22
ag22
ag25
ag25
ag25
ag25
ag24
ag28
aa(lp1031
S'10'
p1032
aS'13'
p1033
aS'13'
p1034
aS'12'
p1035
ag29
ag26
ag24
aS'11'
p1036
ag25
ag22
ag22
ag25
ag22
ag22
ag25
ag25
ag25
ag25
ag25
ag27
ag28
aa(lp1037
S'10'
p1038
aS'10'
p1039
aS'10'
p1040
aS'10'
p1041
ag28
ag26
ag27
aS'10'
p1042
ag24
ag22
ag25
ag22
ag22
ag25
ag25
ag25
ag25
ag25
ag25
ag22
aS'10'
p1043
aa(lp1044
S'10'
p1045
aS'13'
p1046
aS'13'
p1047
aS'12'
p1048
ag29
ag26
ag24
aS'11'
p1049
ag25
ag22
ag22
ag25
ag22
ag25
ag22
ag25
ag25
ag25
ag25
ag27
ag28
aa(lp1050
S'10'
p1051
aS'10'
p1052
aS'10'
p1053
aS'10'
p1054
ag28
ag26
ag27
aS'10'
p1055
ag24
ag22
ag25
ag25
ag22
ag22
ag25
ag22
ag25
ag25
ag25
ag25
aS'10'
p1056
aassI2
(dp1057
I1000
(F4271488.0
I9207640
F933.0
tp1058
sI4000
(F4275960.0
I9207640
F933.0
tp1059
sg5
(lp1060
I6359
aI5150
asI100
(F4269722.0
I9207640
F933.0
tp1061
sg8
(lp1062
(lp1063
g11
ag12
ag13
ag14
ag15
ag16
ag17
ag18
ag19
ag20
ag21
ag22
ag23
ag24
ag25
ag26
ag27
ag28
ag29
ag30
ag31
aa(lp1064
S'10'
p1065
aS'10'
p1066
aS'10'
p1067
aS'10'
p1068
ag28
ag26
ag27
aS'10'
p1069
ag25
ag22
ag22
ag25
ag22
ag22
ag25
ag25
ag25
ag25
ag25
ag24
aS'10'
p1070
aa(lp1071
S'10'
p1072
aS'13'
p1073
aS'13'
p1074
aS'12'
p1075
ag29
ag26
ag27
aS'11'
p1076
ag24
ag22
ag25
ag22
ag22
ag25
ag22
ag25
ag25
ag25
ag25
ag25
ag28
aassI4
(dp1077
I1000
(F4265882.0
I9207640
F1852.0
tp1078
sI4000
(F4274033.0
I9207640
F1852.0
tp1079
sg5
(lp1080
I2499
aI2750
aI2547
aI3713
asI100
(F4270078.0
I9207640
F1852.0
tp1081
sg8
(lp1082
(lp1083
g11
ag12
ag13
ag14
ag15
ag16
ag17
ag18
ag19
ag20
ag21
ag22
ag23
ag24
ag25
ag26
ag27
ag28
ag29
ag30
ag31
aa(lp1084
S'10'
p1085
aS'10'
p1086
aS'10'
p1087
aS'10'
p1088
ag28
ag26
ag27
aS'10'
p1089
ag24
ag22
ag22
ag25
ag22
ag22
ag25
ag25
ag25
ag25
ag25
ag25
aS'10'
p1090
aa(lp1091
S'10'
p1092
aS'10'
p1093
aS'10'
p1094
aS'10'
p1095
ag28
ag26
ag27
aS'10'
p1096
ag24
ag22
ag22
ag22
ag22
ag25
ag25
ag25
ag25
ag25
ag25
ag25
aS'10'
p1097
aa(lp1098
S'10'
p1099
aS'10'
p1100
aS'10'
p1101
aS'10'
p1102
ag28
ag26
ag27
aS'10'
p1103
ag24
ag22
ag22
ag25
ag22
ag25
ag22
ag25
ag25
ag25
ag25
ag25
aS'10'
p1104
aa(lp1105
S'10'
p1106
aS'10'
p1107
aS'10'
p1108
aS'10'
p1109
ag28
ag26
ag27
aS'10'
p1110
ag25
ag22
ag22
ag25
ag22
ag25
ag25
ag25
ag25
ag25
ag22
ag24
aS'10'
p1111
aassI32
(dp1112
I1000
(F4248997.0
I9207640
F14925.0
tp1113
sI4000
(F4263715.0
I9207640
F14925.0
tp1114
sg5
(lp1115
I246
aI304
aI360
aI368
aI410
aI333
aI337
aI334
aI273
aI440
aI463
aI443
aI449
aI260
aI334
aI318
aI381
aI344
aI287
aI367
aI364
aI430
aI383
aI404
aI314
aI343
aI421
aI408
aI356
aI340
aI375
aI320
asI100
(F4258574.0
I9207640
F14925.0
tp1116
sg8
(lp1117
(lp1118
g11
ag12
ag13
ag14
ag15
ag16
ag17
ag18
ag19
ag20
ag21
ag22
ag23
ag24
ag25
ag26
ag27
ag28
ag29
ag30
ag31
aa(lp1119
S'10'
p1120
aS'13'
p1121
aS'13'
p1122
aS'12'
p1123
ag29
ag26
ag27
aS'11'
p1124
ag24
ag22
ag25
ag25
ag23
ag25
ag25
ag25
ag25
ag25
ag25
ag25
ag28
aa(lp1125
S'10'
p1126
aS'13'
p1127
aS'13'
p1128
aS'12'
p1129
ag29
ag26
ag27
aS'11'
p1130
ag24
ag23
ag22
ag25
ag25
ag25
ag25
ag25
ag25
ag25
ag25
ag25
ag28
aa(lp1131
S'10'
p1132
aS'10'
p1133
aS'10'
p1134
aS'10'
p1135
ag28
ag26
ag27
aS'10'
p1136
ag25
ag25
ag22
ag22
ag22
ag25
ag25
ag25
ag25
ag22
ag25
ag24
aS'10'
p1137
aa(lp1138
S'10'
p1139
aS'10'
p1140
aS'10'
p1141
aS'10'
p1142
ag28
ag26
ag24
aS'10'
p1143
ag25
ag22
ag22
ag25
ag22
ag25
ag25
ag25
ag25
ag25
ag22
ag27
aS'10'
p1144
aa(lp1145
S'10'
p1146
aS'10'
p1147
aS'10'
p1148
aS'10'
p1149
ag28
ag26
ag27
aS'10'
p1150
ag24
ag22
ag22
ag25
ag22
ag25
ag25
ag25
ag25
ag22
ag25
ag25
aS'10'
p1151
aa(lp1152
S'10'
p1153
aS'13'
p1154
aS'13'
p1155
aS'12'
p1156
ag29
ag26
ag27
aS'11'
p1157
ag24
ag22
ag25
ag25
ag22
ag22
ag25
ag25
ag22
ag25
ag25
ag25
ag28
aa(lp1158
S'10'
p1159
aS'13'
p1160
aS'13'
p1161
aS'12'
p1162
ag29
ag26
ag27
aS'11'
p1163
ag24
ag25
ag25
ag22
ag22
ag22
ag22
ag25
ag25
ag25
ag25
ag25
ag28
aa(lp1164
S'10'
p1165
aS'13'
p1166
aS'13'
p1167
aS'12'
p1168
ag29
ag26
ag24
aS'11'
p1169
ag25
ag22
ag22
ag25
ag22
ag25
ag25
ag25
ag25
ag22
ag25
ag27
ag28
aa(lp1170
S'10'
p1171
aS'13'
p1172
aS'13'
p1173
aS'12'
p1174
ag29
ag26
ag27
aS'11'
p1175
ag24
ag25
ag25
ag25
ag22
ag22
ag25
ag22
ag22
ag25
ag25
ag25
ag28
aa(lp1176
S'10'
p1177
aS'10'
p1178
aS'10'
p1179
aS'10'
p1180
ag28
ag26
ag27
aS'10'
p1181
ag24
ag25
ag25
ag22
ag22
ag25
ag22
ag25
ag22
ag25
ag25
ag25
aS'10'
p1182
aa(lp1183
S'10'
p1184
aS'10'
p1185
aS'10'
p1186
aS'10'
p1187
ag28
ag26
ag27
aS'10'
p1188
ag25
ag22
ag22
ag25
ag22
ag25
ag22
ag25
ag25
ag25
ag25
ag24
aS'10'
p1189
aa(lp1190
S'10'
p1191
aS'10'
p1192
aS'10'
p1193
aS'10'
p1194
ag28
ag26
ag27
aS'10'
p1195
ag25
ag22
ag22
ag25
ag22
ag25
ag22
ag25
ag25
ag25
ag25
ag24
aS'10'
p1196
aa(lp1197
S'10'
p1198
aS'10'
p1199
aS'10'
p1200
aS'10'
p1201
ag28
ag26
ag24
aS'10'
p1202
ag25
ag22
ag22
ag22
ag22
ag25
ag25
ag25
ag25
ag25
ag25
ag27
aS'10'
p1203
aa(lp1204
S'10'
p1205
aS'13'
p1206
aS'13'
p1207
aS'12'
p1208
ag29
ag26
ag27
aS'11'
p1209
ag24
ag22
ag25
ag22
ag22
ag25
ag25
ag25
ag25
ag25
ag22
ag25
ag28
aa(lp1210
S'10'
p1211
aS'13'
p1212
aS'13'
p1213
aS'12'
p1214
ag29
ag26
ag24
aS'11'
p1215
ag25
ag22
ag22
ag22
ag22
ag25
ag25
ag25
ag25
ag25
ag25
ag27
ag28
aa(lp1216
S'10'
p1217
aS'13'
p1218
aS'13'
p1219
aS'12'
p1220
ag29
ag26
ag27
aS'11'
p1221
ag24
ag25
ag22
ag22
ag22
ag22
ag25
ag25
ag25
ag25
ag25
ag25
ag28
aa(lp1222
S'10'
p1223
aS'10'
p1224
aS'10'
p1225
aS'10'
p1226
ag28
ag26
ag27
aS'10'
p1227
ag24
ag22
ag22
ag25
ag22
ag25
ag25
ag25
ag25
ag25
ag22
ag25
aS'10'
p1228
aa(lp1229
S'10'
p1230
aS'13'
p1231
aS'13'
p1232
aS'12'
p1233
ag29
ag26
ag27
aS'11'
p1234
ag25
ag25
ag22
ag25
ag22
ag25
ag22
ag25
ag25
ag25
ag22
ag24
ag28
aa(lp1235
S'10'
p1236
aS'13'
p1237
aS'13'
p1238
aS'12'
p1239
ag29
ag26
ag27
aS'11'
p1240
ag25
ag25
ag25
ag25
ag22
ag25
ag22
ag22
ag25
ag22
ag25
ag24
ag28
aa(lp1241
S'10'
p1242
aS'10'
p1243
aS'10'
p1244
aS'10'
p1245
ag28
ag26
ag27
aS'10'
p1246
ag24
ag22
ag25
ag25
ag22
ag25
ag25
ag25
ag25
ag22
ag25
ag22
aS'10'
p1247
aa(lp1248
S'10'
p1249
aS'10'
p1250
aS'10'
p1251
aS'10'
p1252
ag28
ag26
ag24
aS'10'
p1253
ag25
ag22
ag25
ag25
ag25
ag22
ag22
ag22
ag25
ag25
ag25
ag27
aS'10'
p1254
aa(lp1255
S'10'
p1256
aS'10'
p1257
aS'10'
p1258
aS'10'
p1259
ag28
ag26
ag27
aS'10'
p1260
ag25
ag22
ag25
ag25
ag22
ag22
ag25
ag25
ag25
ag25
ag22
ag24
aS'10'
p1261
aa(lp1262
S'10'
p1263
aS'10'
p1264
aS'10'
p1265
aS'10'
p1266
ag28
ag26
ag27
aS'10'
p1267
ag25
ag22
ag22
ag25
ag22
ag22
ag25
ag25
ag25
ag25
ag25
ag24
aS'10'
p1268
aa(lp1269
S'10'
p1270
aS'10'
p1271
aS'10'
p1272
aS'10'
p1273
ag28
ag26
ag24
aS'10'
p1274
ag25
ag22
ag22
ag25
ag22
ag25
ag25
ag22
ag25
ag25
ag25
ag27
aS'10'
p1275
aa(lp1276
S'10'
p1277
aS'13'
p1278
aS'13'
p1279
aS'12'
p1280
ag29
ag26
ag27
aS'11'
p1281
ag24
ag25
ag25
ag22
ag25
ag25
ag23
ag25
ag25
ag25
ag25
ag25
ag28
aa(lp1282
S'10'
p1283
aS'13'
p1284
aS'13'
p1285
aS'12'
p1286
ag29
ag26
ag27
aS'11'
p1287
ag24
ag22
ag25
ag22
ag22
ag25
ag25
ag22
ag25
ag25
ag25
ag25
ag28
aa(lp1288
S'10'
p1289
aS'10'
p1290
aS'10'
p1291
aS'10'
p1292
ag28
ag26
ag27
aS'10'
p1293
ag25
ag22
ag22
ag22
ag25
ag25
ag22
ag25
ag25
ag25
ag25
ag24
aS'10'
p1294
aa(lp1295
S'10'
p1296
aS'10'
p1297
aS'10'
p1298
aS'10'
p1299
ag28
ag26
ag27
aS'10'
p1300
ag25
ag22
ag22
ag22
ag25
ag25
ag25
ag25
ag22
ag25
ag25
ag24
aS'10'
p1301
aa(lp1302
S'10'
p1303
aS'10'
p1304
aS'10'
p1305
aS'10'
p1306
ag28
ag26
ag27
aS'10'
p1307
ag24
ag22
ag25
ag22
ag25
ag22
ag22
ag25
ag25
ag25
ag25
ag25
aS'10'
p1308
aa(lp1309
S'10'
p1310
aS'13'
p1311
aS'13'
p1312
aS'12'
p1313
ag29
ag26
ag27
aS'11'
p1314
ag24
ag25
ag25
ag23
ag22
ag25
ag25
ag25
ag25
ag25
ag25
ag25
ag28
aa(lp1315
S'10'
p1316
aS'10'
p1317
aS'10'
p1318
aS'10'
p1319
ag28
ag26
ag24
aS'10'
p1320
ag25
ag22
ag22
ag25
ag22
ag22
ag25
ag25
ag25
ag25
ag25
ag27
aS'10'
p1321
aa(lp1322
S'10'
p1323
aS'13'
p1324
aS'13'
p1325
aS'12'
p1326
ag29
ag26
ag27
aS'11'
p1327
ag24
ag22
ag25
ag25
ag22
ag22
ag22
ag25
ag25
ag25
ag25
ag25
ag28
aasss.