(dp0
I1000
(dp1
I8
(dp2
I4000
(F1792162.0
I5203256
F4591.0
tp3
sI100
(F1804193.0
I5203256
F4591.0
tp4
sI1000
(F1788134.0
I5203256
F4591.0
tp5
sS'huffman_lengths'
p6
(lp7
(lp8
S'\x07'
p9
aS'\x06'
p10
aS'\t'
p11
aS'\x08'
p12
aS'\x0b'
p13
aS'\n'
p14
aS'\r'
p15
aS'\x0c'
p16
aS'\x0f'
p17
aS'\x0e'
p18
aS'\x11'
p19
aS'\x10'
p20
aS'\x13'
p21
aS'\x12'
p22
aS'\x15'
p23
aS'\x14'
p24
aS'\x17'
p25
aS'\x16'
p26
aS'\x19'
p27
aS'\x18'
p28
aS'\x1b'
p29
aS'\x1a'
p30
aS'\x1d'
p31
aS'\x1c'
p32
aa(lp33
S'2'
p34
aS'1'
p35
aS'6'
p36
aS'5'
p37
aS'10'
p38
aS'8'
p39
aS'13'
p40
aS'10'
p41
aS'9'
p42
aS'11'
p43
aS'4'
p44
ag36
ag37
ag44
ag39
ag36
aS'11'
p45
ag42
aS'11'
p46
aS'12'
p47
aS'15'
p48
aS'14'
p49
aS'16'
p50
aS'16'
p51
aa(lp52
g34
ag34
ag36
aS'3'
p53
ag42
ag39
aS'11'
p54
aS'10'
p55
ag39
ag42
ag44
aS'7'
p56
ag53
ag44
ag36
ag44
aS'10'
p57
ag39
ag42
ag42
aS'12'
p58
aS'10'
p59
aS'13'
p60
aS'13'
p61
aa(lp62
g34
ag35
ag56
ag37
aS'10'
p63
ag39
aS'11'
p64
aS'11'
p65
ag56
ag42
ag37
ag44
ag37
ag44
ag42
ag39
aS'12'
p66
aS'10'
p67
aS'13'
p68
aS'11'
p69
aS'16'
p70
aS'14'
p71
aS'15'
p72
aS'16'
p73
aa(lp74
g34
ag34
ag36
ag53
ag56
ag56
ag42
ag39
ag36
ag36
ag37
ag44
ag44
ag53
ag39
ag36
ag42
aS'11'
p75
aS'10'
p76
ag42
aS'13'
p77
aS'12'
p78
aS'14'
p79
aS'14'
p80
aa(lp81
g34
ag34
ag37
ag53
ag42
ag39
ag42
ag42
ag39
ag42
ag44
ag37
ag44
ag53
ag56
ag37
ag42
ag42
aS'10'
p82
ag42
aS'12'
p83
aS'11'
p84
aS'13'
p85
aS'13'
p86
aa(lp87
g34
ag35
ag56
ag37
ag42
ag42
aS'10'
p88
aS'11'
p89
ag39
ag42
ag44
ag37
ag37
ag44
ag42
ag56
aS'11'
p90
aS'10'
p91
aS'12'
p92
aS'11'
p93
aS'15'
p94
aS'13'
p95
aS'14'
p96
aS'15'
p97
aa(lp98
g34
ag34
ag37
ag53
ag37
ag37
ag36
ag37
ag56
ag37
ag37
ag36
ag44
ag44
ag39
ag36
aS'10'
p99
aS'10'
p100
aS'11'
p101
aS'10'
p102
aS'13'
p103
aS'12'
p104
aS'14'
p105
aS'14'
p106
aa(lp107
g34
ag34
ag36
ag53
ag36
ag56
ag36
ag56
ag36
ag44
ag44
ag44
ag37
ag44
ag39
ag56
aS'11'
p108
ag42
aS'12'
p109
aS'10'
p110
aS'14'
p111
aS'13'
p112
aS'15'
p113
aS'15'
p114
aasI20
(F1876797.0
I5203256
F4591.0
tp115
sS'train_labels_count'
p116
(lp117
I105
aI181
aI90
aI61
aI60
aI86
aI25
aI42
assI16
(dp118
I4000
(F1790407.0
I5203256
F9185.0
tp119
sI100
(F1803216.0
I5203256
F9185.0
tp120
sI1000
(F1783155.0
I5203256
F9185.0
tp121
sg6
(lp122
(lp123
g9
ag10
ag11
ag12
ag13
ag14
ag15
ag16
ag17
ag18
ag19
ag20
ag21
ag22
ag23
ag24
ag25
ag26
ag27
ag28
ag29
ag30
ag31
ag32
aa(lp124
g34
ag34
ag36
ag53
ag36
ag56
ag36
ag36
ag36
ag37
ag37
ag36
ag44
ag53
ag39
ag36
aS'10'
p125
aS'12'
p126
aS'11'
p127
ag42
aS'14'
p128
aS'13'
p129
aS'15'
p130
aS'15'
p131
aa(lp132
g34
ag35
ag56
ag37
aS'10'
p133
ag39
ag42
aS'11'
p134
ag36
ag56
ag37
ag44
ag36
ag44
ag42
ag39
aS'11'
p135
aS'10'
p136
aS'12'
p137
aS'11'
p138
aS'14'
p139
aS'13'
p140
aS'15'
p141
aS'15'
p142
aa(lp143
g34
ag34
ag36
ag53
ag42
ag39
aS'13'
p144
aS'10'
p145
ag42
aS'10'
p146
ag44
ag36
ag53
ag44
ag36
ag44
aS'12'
p147
ag42
ag42
aS'10'
p148
aS'14'
p149
aS'11'
p150
aS'15'
p151
aS'15'
p152
aa(lp153
g34
ag35
ag56
ag37
ag39
ag39
aS'11'
p154
ag42
ag42
aS'10'
p155
ag37
ag36
ag44
ag44
ag39
ag36
aS'10'
p156
ag39
aS'11'
p157
aS'11'
p158
aS'13'
p159
aS'12'
p160
aS'14'
p161
aS'14'
p162
aa(lp163
g34
ag34
ag36
ag53
ag42
ag39
aS'10'
p164
ag42
ag36
ag42
ag44
ag44
ag44
ag53
ag42
ag36
aS'10'
p165
aS'11'
p166
aS'12'
p167
aS'10'
p168
aS'14'
p169
aS'13'
p170
aS'15'
p171
aS'15'
p172
aa(lp173
g34
ag35
ag56
ag37
ag42
ag42
aS'10'
p174
aS'11'
p175
ag39
ag42
ag44
ag37
ag37
ag44
ag42
ag56
aS'12'
p176
aS'10'
p177
aS'13'
p178
aS'10'
p179
aS'16'
p180
aS'14'
p181
aS'15'
p182
aS'16'
p183
aa(lp184
g34
ag34
ag37
ag53
ag44
ag37
ag56
ag36
ag36
ag37
ag37
ag37
ag37
ag44
ag39
ag36
aS'10'
p185
ag42
aS'12'
p186
aS'11'
p187
aS'14'
p188
aS'13'
p189
aS'15'
p190
aS'15'
p191
aa(lp192
g34
ag34
ag37
ag53
ag39
ag56
aS'11'
p193
ag39
ag39
ag39
ag37
ag56
ag53
ag44
ag36
ag44
aS'10'
p194
ag56
ag39
aS'10'
p195
aS'13'
p196
aS'10'
p197
aS'13'
p198
aS'12'
p199
aa(lp200
g34
ag34
ag36
ag44
ag39
ag56
aS'13'
p201
aS'10'
p202
ag56
aS'10'
p203
ag53
ag44
ag44
ag53
ag39
ag36
aS'11'
p204
ag39
aS'12'
p205
aS'10'
p206
aS'16'
p207
aS'14'
p208
aS'16'
p209
aS'15'
p210
aa(lp211
g34
ag34
ag36
ag53
ag56
ag39
ag36
ag39
ag37
ag44
ag44
ag44
ag37
ag44
ag39
ag56
aS'11'
p212
ag42
aS'12'
p213
aS'10'
p214
aS'14'
p215
aS'13'
p216
aS'15'
p217
aS'15'
p218
aa(lp219
g34
ag34
ag36
ag53
ag39
ag56
ag42
ag56
ag39
ag39
ag44
ag37
ag44
ag53
ag56
ag37
ag42
ag39
aS'10'
p220
ag42
aS'12'
p221
aS'11'
p222
aS'13'
p223
aS'13'
p224
aa(lp225
g34
ag34
ag37
ag53
ag42
ag56
aS'11'
p226
ag42
ag42
ag42
ag37
ag42
ag53
ag44
ag37
ag44
ag42
ag39
ag39
ag42
aS'12'
p227
aS'10'
p228
aS'13'
p229
aS'13'
p230
aa(lp231
g34
ag34
ag37
ag53
ag39
ag56
aS'10'
p232
aS'11'
p233
ag42
aS'10'
p234
ag44
ag37
ag44
ag53
ag56
ag37
ag42
ag42
aS'10'
p235
ag42
aS'13'
p236
aS'12'
p237
aS'14'
p238
aS'14'
p239
aa(lp240
g34
ag34
ag56
ag53
aS'10'
p241
ag39
ag39
ag42
ag37
ag44
ag44
ag37
ag37
ag53
ag42
ag56
aS'10'
p242
aS'11'
p243
aS'12'
p244
aS'10'
p245
aS'13'
p246
aS'15'
p247
aS'15'
p248
aS'14'
p249
aa(lp250
g34
ag34
ag44
ag53
ag37
ag37
ag36
ag44
ag56
ag37
ag36
ag36
ag37
ag37
ag42
ag37
aS'12'
p251
ag42
aS'10'
p252
ag42
aS'13'
p253
aS'11'
p254
aS'14'
p255
aS'14'
p256
aa(lp257
g34
ag35
ag56
ag37
aS'11'
p258
ag42
aS'15'
p259
aS'14'
p260
aS'10'
p261
aS'11'
p262
ag44
ag37
ag37
ag44
ag42
ag36
aS'11'
p263
aS'10'
p264
aS'12'
p265
aS'13'
p266
aS'16'
p267
aS'17'
p268
aS'18'
p269
aS'18'
p270
aasI20
(F1900363.0
I5203256
F9185.0
tp271
sg116
(lp272
I15
aI40
aI57
aI63
aI47
aI82
aI15
aI68
aI47
aI29
aI25
aI57
aI42
aI8
aI9
aI46
assI32
(dp273
I4000
(F1785430.0
I5203256
F18505.0
tp274
sI100
(F1804398.0
I5203256
F18505.0
tp275
sI1000
(F1776853.0
I5203256
F18505.0
tp276
sg6
(lp277
(lp278
g9
ag10
ag11
ag12
ag13
ag14
ag15
ag16
ag17
ag18
ag19
ag20
ag21
ag22
ag23
ag24
ag25
ag26
ag27
ag28
ag29
ag30
ag31
ag32
aa(lp279
g34
ag34
ag36
ag44
ag42
ag39
aS'10'
p280
aS'12'
p281
ag39
ag56
ag53
ag44
ag44
ag53
ag56
ag36
aS'10'
p282
ag42
aS'11'
p283
aS'10'
p284
aS'14'
p285
aS'13'
p286
aS'15'
p287
aS'15'
p288
aa(lp289
g34
ag34
ag37
ag53
ag36
ag36
ag56
ag37
ag56
ag36
ag36
ag42
ag53
ag37
ag56
ag44
aS'12'
p290
ag42
ag42
aS'10'
p291
aS'13'
p292
aS'11'
p293
aS'14'
p294
aS'14'
p295
aa(lp296
g34
ag35
ag56
ag37
aS'10'
p297
ag39
aS'13'
p298
aS'12'
p299
ag42
aS'10'
p300
ag44
ag37
ag37
ag44
ag39
ag56
aS'10'
p301
ag42
aS'12'
p302
aS'12'
p303
aS'15'
p304
aS'14'
p305
aS'16'
p306
aS'16'
p307
aa(lp308
g34
ag34
ag36
ag53
aS'10'
p309
ag56
aS'15'
p310
aS'13'
p311
ag56
aS'11'
p312
ag44
ag44
ag44
ag53
ag56
ag36
ag42
aS'10'
p313
aS'10'
p314
ag42
aS'14'
p315
aS'12'
p316
aS'16'
p317
aS'16'
p318
aa(lp319
g34
ag34
ag56
ag53
aS'11'
p320
ag39
ag56
aS'11'
p321
ag37
ag44
ag44
ag37
ag37
ag53
aS'10'
p322
ag56
aS'12'
p323
aS'11'
p324
aS'11'
p325
aS'11'
p326
aS'14'
p327
aS'13'
p328
aS'15'
p329
aS'15'
p330
aa(lp331
g34
ag34
ag36
ag53
aS'10'
p332
ag39
aS'14'
p333
aS'12'
p334
aS'11'
p335
aS'11'
p336
ag36
aS'10'
p337
ag53
ag44
ag36
ag53
aS'10'
p338
ag39
ag42
aS'10'
p339
aS'13'
p340
aS'11'
p341
aS'15'
p342
aS'15'
p343
aa(lp344
g34
ag35
ag36
ag37
aS'11'
p345
ag42
aS'13'
p346
aS'12'
p347
ag36
ag42
ag36
ag44
ag37
ag44
ag39
ag39
aS'10'
p348
aS'10'
p349
aS'11'
p350
aS'11'
p351
aS'14'
p352
aS'16'
p353
aS'16'
p354
aS'15'
p355
aa(lp356
g34
ag34
ag36
ag53
ag42
ag39
aS'12'
p357
aS'10'
p358
ag42
ag39
ag44
ag36
ag53
ag44
ag56
ag44
aS'11'
p359
ag39
ag39
aS'10'
p360
aS'13'
p361
aS'10'
p362
aS'14'
p363
aS'14'
p364
aa(lp365
g34
ag35
ag56
ag37
ag42
ag42
aS'10'
p366
aS'12'
p367
ag39
ag42
ag37
ag44
ag37
ag44
ag42
ag56
aS'11'
p368
aS'10'
p369
aS'13'
p370
aS'10'
p371
aS'15'
p372
aS'14'
p373
aS'16'
p374
aS'16'
p375
aa(lp376
g34
ag34
ag36
ag53
ag42
ag56
ag39
aS'11'
p377
aS'10'
p378
ag56
ag37
ag56
ag53
ag53
ag56
ag37
aS'10'
p379
ag42
aS'10'
p380
ag39
aS'13'
p381
aS'12'
p382
aS'14'
p383
aS'14'
p384
aa(lp385
g34
ag34
ag37
ag53
ag44
ag56
ag56
ag44
ag36
ag37
ag36
ag56
ag44
ag37
ag39
ag37
aS'10'
p386
ag42
aS'13'
p387
aS'11'
p388
aS'14'
p389
aS'12'
p390
aS'15'
p391
aS'15'
p392
aa(lp393
g34
ag34
ag56
ag53
aS'10'
p394
ag39
aS'11'
p395
ag42
ag37
ag37
ag44
ag44
ag37
ag53
ag39
ag56
aS'10'
p396
aS'12'
p397
aS'10'
p398
ag42
aS'13'
p399
aS'15'
p400
aS'15'
p401
aS'14'
p402
aa(lp403
g34
ag34
ag37
ag53
ag37
ag37
ag36
ag37
ag56
ag37
ag44
ag36
ag37
ag44
ag39
ag36
aS'10'
p404
ag42
aS'12'
p405
aS'11'
p406
aS'14'
p407
aS'13'
p408
aS'15'
p409
aS'15'
p410
aa(lp411
g34
ag34
ag36
ag53
aS'11'
p412
ag39
aS'14'
p413
aS'12'
p414
ag42
aS'11'
p415
ag44
ag36
ag53
ag44
ag36
ag44
aS'10'
p416
ag39
aS'10'
p417
ag42
aS'13'
p418
aS'11'
p419
aS'15'
p420
aS'15'
p421
aa(lp422
g34
ag35
ag56
ag44
aS'10'
p423
ag39
ag56
aS'10'
p424
ag36
ag37
ag37
ag37
ag36
ag37
ag42
ag39
aS'11'
p425
ag42
aS'12'
p426
aS'10'
p427
aS'14'
p428
aS'13'
p429
aS'15'
p430
aS'15'
p431
aa(lp432
g34
ag34
ag37
ag53
ag36
ag56
ag36
ag37
ag36
ag36
ag44
ag37
ag44
ag44
ag39
ag36
aS'10'
p433
ag42
aS'12'
p434
aS'11'
p435
aS'13'
p436
aS'15'
p437
aS'15'
p438
aS'14'
p439
aa(lp440
g34
ag34
ag36
ag53
ag39
ag56
ag42
ag39
ag39
ag56
ag44
ag37
ag44
ag53
ag56
ag37
ag42
ag39
aS'10'
p441
ag42
aS'12'
p442
aS'11'
p443
aS'13'
p444
aS'13'
p445
aa(lp446
g34
ag34
ag44
ag53
ag37
ag37
ag36
ag44
ag39
ag37
ag37
ag36
ag37
ag37
ag39
ag36
aS'11'
p447
ag42
ag42
ag42
aS'12'
p448
aS'10'
p449
aS'13'
p450
aS'13'
p451
aa(lp452
g34
ag34
ag37
ag53
ag42
ag56
ag56
ag56
ag56
ag56
ag44
ag37
ag44
ag53
ag42
ag36
aS'10'
p453
aS'10'
p454
aS'11'
p455
aS'10'
p456
aS'12'
p457
aS'13'
p458
aS'14'
p459
aS'14'
p460
aa(lp461
g34
ag35
ag56
ag37
aS'11'
p462
ag42
aS'14'
p463
aS'12'
p464
aS'11'
p465
aS'12'
p466
ag37
ag36
ag44
ag44
ag42
ag37
aS'10'
p467
aS'10'
p468
aS'12'
p469
aS'13'
p470
aS'16'
p471
aS'15'
p472
aS'17'
p473
aS'17'
p474
aa(lp475
g34
ag35
ag56
ag37
ag42
ag39
aS'14'
p476
aS'12'
p477
ag39
aS'11'
p478
ag44
ag44
ag37
ag37
ag42
ag56
aS'11'
p479
ag42
aS'13'
p480
aS'11'
p481
aS'16'
p482
aS'15'
p483
aS'17'
p484
aS'17'
p485
aa(lp486
g34
ag35
ag36
ag37
aS'10'
p487
ag39
aS'10'
p488
aS'11'
p489
ag36
aS'10'
p490
ag37
ag44
ag36
ag44
ag42
ag39
aS'11'
p491
aS'10'
p492
aS'12'
p493
aS'11'
p494
aS'14'
p495
aS'13'
p496
aS'15'
p497
aS'15'
p498
aa(lp499
g34
ag34
ag37
ag53
aS'10'
p500
ag39
aS'12'
p501
aS'10'
p502
ag37
ag39
ag37
ag44
ag44
ag53
ag42
ag36
aS'10'
p503
aS'10'
p504
aS'11'
p505
aS'10'
p506
aS'14'
p507
aS'13'
p508
aS'15'
p509
aS'15'
p510
aa(lp511
g34
ag34
ag36
ag44
ag39
ag56
aS'13'
p512
ag42
ag56
ag42
ag44
ag53
ag44
ag53
ag39
ag36
aS'11'
p513
ag42
aS'12'
p514
aS'10'
p515
aS'15'
p516
aS'14'
p517
aS'16'
p518
aS'16'
p519
aa(lp520
g34
ag35
ag56
ag37
ag42
ag39
aS'13'
p521
ag42
ag42
aS'12'
p522
ag37
ag36
ag44
ag44
ag56
ag36
aS'10'
p523
ag39
aS'12'
p524
aS'12'
p525
aS'15'
p526
aS'14'
p527
aS'16'
p528
aS'16'
p529
aa(lp530
g34
ag34
ag37
ag53
ag42
ag39
ag56
aS'10'
p531
ag37
ag44
ag44
ag44
ag37
ag44
ag39
ag56
aS'10'
p532
ag42
aS'11'
p533
aS'10'
p534
aS'12'
p535
aS'14'
p536
aS'14'
p537
aS'13'
p538
aa(lp539
g34
ag34
ag37
ag53
aS'10'
p540
ag39
ag44
aS'11'
p541
ag37
ag53
ag36
ag37
ag37
ag37
ag42
ag39
ag42
aS'10'
p542
aS'15'
p543
aS'10'
p544
aS'14'
p545
aS'15'
p546
aS'12'
p547
aS'13'
p548
aa(lp549
g34
ag34
ag36
ag53
aS'10'
p550
ag56
aS'12'
p551
aS'11'
p552
ag39
ag42
ag44
ag39
ag53
ag44
ag36
ag44
aS'10'
p553
ag39
ag39
ag42
aS'14'
p554
aS'10'
p555
aS'14'
p556
aS'13'
p557
aa(lp558
g34
ag35
ag56
ag37
aS'11'
p559
ag42
aS'20'
p560
aS'15'
p561
ag42
aS'13'
p562
ag44
ag37
ag37
ag44
ag42
ag36
aS'12'
p563
aS'10'
p564
aS'14'
p565
aS'16'
p566
aS'18'
p567
aS'17'
p568
aS'20'
p569
aS'19'
p570
aa(lp571
g34
ag34
ag36
ag53
ag44
ag37
ag56
ag39
ag36
ag37
ag37
ag44
ag37
ag44
ag39
ag56
aS'10'
p572
ag39
aS'11'
p573
ag42
aS'13'
p574
aS'12'
p575
aS'14'
p576
aS'14'
p577
aa(lp578
g34
ag34
ag36
ag53
ag44
ag36
ag56
ag39
ag39
ag36
ag37
ag36
ag44
ag53
ag42
ag56
ag42
aS'11'
p579
aS'10'
p580
ag42
aS'12'
p581
aS'14'
p582
aS'14'
p583
aS'13'
p584
aa(lp585
g34
ag34
ag36
ag53
ag42
ag39
aS'11'
p586
aS'14'
p587
ag56
aS'12'
p588
ag44
ag44
ag44
ag53
ag56
ag36
ag42
ag39
ag42
aS'10'
p589
aS'15'
p590
aS'13'
p591
aS'16'
p592
aS'16'
p593
aasI20
(F1926695.0
I5203256
F18505.0
tp594
sg116
(lp595
I16
aI7
aI31
aI27
aI11
aI43
aI8
aI41
aI29
aI28
aI6
aI8
aI7
aI46
aI13
aI9
aI16
aI6
aI10
aI29
aI42
aI25
aI22
aI34
aI37
aI7
aI4
aI47
aI14
aI10
aI8
aI9
asssI100
(dp596
I8
(dp597
I4000
(F1802927.0
I5203256
F4574.0
tp598
sI100
(F1807863.0
I5203256
F4574.0
tp599
sI1000
(F1798041.0
I5203256
F4574.0
tp600
sg6
(lp601
(lp602
g9
ag10
ag11
ag12
ag13
ag14
ag15
ag16
ag17
ag18
ag19
ag20
ag21
ag22
ag23
ag24
ag25
ag26
ag27
ag28
ag29
ag30
ag31
ag32
aa(lp603
g34
ag34
ag36
ag53
ag42
ag39
aS'12'
p604
ag42
ag39
ag42
ag44
ag56
ag53
ag44
ag36
ag44
aS'10'
p605
ag39
ag42
ag42
aS'13'
p606
aS'11'
p607
aS'14'
p608
aS'14'
p609
aa(lp610
g34
ag34
ag36
ag53
ag56
ag56
ag39
ag39
ag36
ag56
ag44
ag37
ag44
ag53
ag56
ag36
ag42
ag42
aS'10'
p611
ag42
aS'12'
p612
aS'11'
p613
aS'13'
p614
aS'13'
p615
aa(lp616
g34
ag35
ag56
ag37
aS'10'
p617
ag42
aS'11'
p618
aS'10'
p619
ag42
ag42
ag44
ag37
ag37
ag44
ag39
ag56
aS'10'
p620
ag42
aS'12'
p621
aS'13'
p622
aS'15'
p623
aS'14'
p624
aS'16'
p625
aS'16'
p626
aa(lp627
g34
ag34
ag37
ag53
ag42
ag56
aS'11'
p628
ag42
ag39
ag39
ag37
ag36
ag53
ag44
ag36
ag44
aS'10'
p629
ag39
ag39
aS'10'
p630
aS'12'
p631
aS'10'
p632
aS'13'
p633
aS'13'
p634
aa(lp635
g34
ag34
ag37
ag53
ag44
ag36
ag36
ag37
ag36
ag44
ag37
ag36
ag37
ag37
ag56
ag36
ag42
ag42
aS'10'
p636
ag42
aS'12'
p637
aS'11'
p638
aS'13'
p639
aS'13'
p640
aa(lp641
g34
ag35
ag56
ag44
ag39
ag39
ag42
aS'10'
p642
ag56
ag56
ag37
ag44
ag36
ag37
ag42
ag56
aS'12'
p643
ag42
aS'13'
p644
aS'11'
p645
aS'15'
p646
aS'14'
p647
aS'16'
p648
aS'16'
p649
aa(lp650
g34
ag35
ag56
ag44
ag42
ag39
aS'10'
p651
aS'10'
p652
ag39
ag39
ag37
ag36
ag37
ag44
ag39
ag36
aS'10'
p653
ag42
aS'12'
p654
aS'11'
p655
aS'14'
p656
aS'13'
p657
aS'15'
p658
aS'15'
p659
aa(lp660
g34
ag34
ag36
ag44
ag42
ag39
aS'10'
p661
aS'10'
p662
ag56
ag56
ag53
ag44
ag44
ag53
ag39
ag36
aS'11'
p663
ag42
aS'12'
p664
aS'10'
p665
aS'14'
p666
aS'13'
p667
aS'15'
p668
aS'15'
p669
aasI20
(F1875829.0
I5203256
F4574.0
tp670
sg116
(lp671
I986
aI827
aI788
aI918
aI329
aI785
aI1017
aI854
assI16
(dp672
I4000
(F1797964.0
I5203256
F9166.0
tp673
sI100
(F1804195.0
I5203256
F9166.0
tp674
sI1000
(F1790400.0
I5203256
F9166.0
tp675
sg6
(lp676
(lp677
g9
ag10
ag11
ag12
ag13
ag14
ag15
ag16
ag17
ag18
ag19
ag20
ag21
ag22
ag23
ag24
ag25
ag26
ag27
ag28
ag29
ag30
ag31
ag32
aa(lp678
g34
ag35
ag56
ag44
ag42
ag42
aS'11'
p679
aS'11'
p680
ag56
ag39
ag37
ag44
ag37
ag37
aS'10'
p681
ag39
aS'12'
p682
aS'10'
p683
aS'13'
p684
aS'11'
p685
aS'15'
p686
aS'14'
p687
aS'16'
p688
aS'16'
p689
aa(lp690
g34
ag34
ag36
ag53
aS'10'
p691
ag39
aS'10'
p692
aS'10'
p693
ag39
ag39
ag44
ag56
ag53
ag44
ag36
ag44
aS'11'
p694
ag39
ag42
aS'10'
p695
aS'12'
p696
aS'10'
p697
aS'13'
p698
aS'13'
p699
aa(lp700
g34
ag34
ag36
ag53
ag39
ag56
ag42
ag42
ag56
ag39
ag44
ag37
ag44
ag53
ag56
ag37
ag42
ag39
aS'10'
p701
ag39
aS'12'
p702
aS'11'
p703
aS'13'
p704
aS'13'
p705
aa(lp706
g34
ag35
ag56
ag44
ag42
ag39
aS'12'
p707
ag42
ag42
aS'10'
p708
ag37
ag36
ag44
ag37
ag56
ag36
aS'10'
p709
ag42
aS'10'
p710
aS'11'
p711
aS'14'
p712
aS'13'
p713
aS'15'
p714
aS'15'
p715
aa(lp716
g34
ag34
ag37
ag53
ag39
ag56
aS'11'
p717
ag42
ag39
ag42
ag37
ag56
ag53
ag44
ag36
ag44
aS'10'
p718
ag56
ag39
ag39
aS'12'
p719
ag42
aS'13'
p720
aS'13'
p721
aa(lp722
g34
ag34
ag36
ag53
ag39
ag56
ag39
ag42
ag36
ag36
ag44
ag37
ag44
ag53
ag56
ag36
ag42
aS'10'
p723
aS'11'
p724
ag42
aS'13'
p725
aS'12'
p726
aS'14'
p727
aS'14'
p728
aa(lp729
g34
ag34
ag36
ag53
ag39
ag39
ag42
ag42
ag56
ag39
ag44
ag44
ag44
ag53
ag39
ag36
aS'11'
p730
ag42
aS'12'
p731
aS'10'
p732
aS'14'
p733
aS'13'
p734
aS'15'
p735
aS'15'
p736
aa(lp737
g34
ag35
ag56
ag37
aS'10'
p738
ag39
aS'11'
p739
aS'11'
p740
ag42
aS'10'
p741
ag44
ag37
ag37
ag44
ag39
ag56
aS'11'
p742
ag42
aS'13'
p743
aS'12'
p744
aS'15'
p745
aS'14'
p746
aS'16'
p747
aS'16'
p748
aa(lp749
g34
ag34
ag36
ag53
ag42
ag39
aS'11'
p750
ag42
ag39
ag42
ag44
ag56
ag53
ag44
ag36
ag44
aS'10'
p751
ag39
ag42
aS'10'
p752
aS'12'
p753
aS'10'
p754
aS'13'
p755
aS'13'
p756
aa(lp757
g34
ag34
ag36
ag53
ag39
ag56
aS'10'
p758
aS'11'
p759
ag36
ag39
ag44
ag53
ag44
ag44
ag42
ag56
aS'10'
p760
ag42
aS'12'
p761
aS'10'
p762
aS'14'
p763
aS'13'
p764
aS'15'
p765
aS'15'
p766
aa(lp767
g34
ag34
ag36
ag53
ag42
ag39
aS'11'
p768
ag42
ag39
ag42
ag44
ag56
ag53
ag44
ag36
ag44
aS'10'
p769
ag39
ag42
aS'10'
p770
aS'12'
p771
aS'10'
p772
aS'13'
p773
aS'13'
p774
aa(lp775
g34
ag34
ag37
ag53
ag44
ag37
ag36
ag44
ag56
ag37
ag37
ag36
ag37
ag37
ag39
ag36
aS'10'
p776
aS'10'
p777
aS'11'
p778
aS'10'
p779
aS'13'
p780
aS'12'
p781
aS'14'
p782
aS'14'
p783
aa(lp784
g34
ag34
ag36
ag53
ag42
ag39
ag39
ag39
ag36
ag39
ag44
ag37
ag44
ag53
ag56
ag37
aS'10'
p785
ag42
aS'11'
p786
ag42
aS'13'
p787
aS'12'
p788
aS'14'
p789
aS'14'
p790
aa(lp791
g34
ag34
ag36
ag44
ag42
ag39
aS'10'
p792
aS'10'
p793
ag56
ag56
ag53
ag44
ag44
ag53
ag39
ag36
aS'11'
p794
ag42
aS'12'
p795
aS'10'
p796
aS'14'
p797
aS'13'
p798
aS'15'
p799
aS'15'
p800
aa(lp801
g34
ag34
ag36
ag53
ag56
ag56
ag36
ag39
ag37
ag53
ag37
ag37
ag37
ag44
ag42
ag56
aS'11'
p802
aS'10'
p803
aS'13'
p804
aS'12'
p805
aS'14'
p806
aS'16'
p807
aS'16'
p808
aS'15'
p809
aa(lp810
g34
ag35
ag56
ag37
aS'10'
p811
ag39
aS'11'
p812
aS'11'
p813
ag42
ag42
ag44
ag37
ag37
ag44
ag39
ag56
aS'11'
p814
aS'10'
p815
aS'13'
p816
aS'12'
p817
aS'15'
p818
aS'14'
p819
aS'16'
p820
aS'16'
p821
aasI20
(F1896087.0
I5203256
F9166.0
tp822
sg116
(lp823
I418
aI372
aI419
aI434
aI469
aI405
aI334
aI471
aI446
aI422
aI529
aI191
aI382
aI400
aI220
aI592
assI32
(dp824
I4000
(F1793611.0
I5203256
F18346.0
tp825
sI100
(F1803944.0
I5203256
F18346.0
tp826
sI1000
(F1787380.0
I5203256
F18346.0
tp827
sg6
(lp828
(lp829
g9
ag10
ag11
ag12
ag13
ag14
ag15
ag16
ag17
ag18
ag19
ag20
ag21
ag22
ag23
ag24
ag25
ag26
ag27
ag28
ag29
ag30
ag31
ag32
aa(lp830
g34
ag34
ag37
ag53
ag39
ag56
aS'11'
p831
ag42
ag39
ag42
ag37
ag56
ag53
ag44
ag36
ag44
ag42
ag56
ag39
ag39
aS'12'
p832
aS'10'
p833
aS'13'
p834
aS'13'
p835
aa(lp836
g34
ag34
ag36
ag53
aS'10'
p837
ag39
ag42
ag42
ag37
ag36
ag37
ag44
ag44
ag53
ag42
ag36
aS'10'
p838
aS'10'
p839
aS'11'
p840
ag42
aS'13'
p841
aS'12'
p842
aS'14'
p843
aS'14'
p844
aa(lp845
g34
ag35
ag36
ag37
aS'10'
p846
ag39
aS'12'
p847
aS'11'
p848
ag42
aS'10'
p849
ag37
ag36
ag44
ag44
ag39
ag36
aS'11'
p850
ag42
aS'11'
p851
aS'13'
p852
aS'15'
p853
aS'14'
p854
aS'16'
p855
aS'16'
p856
aa(lp857
g34
ag35
ag56
ag37
aS'10'
p858
ag39
aS'10'
p859
aS'12'
p860
ag56
ag42
ag44
ag44
ag37
ag37
ag42
ag39
aS'12'
p861
aS'10'
p862
aS'13'
p863
aS'12'
p864
aS'15'
p865
aS'14'
p866
aS'16'
p867
aS'16'
p868
aa(lp869
g34
ag34
ag37
ag53
ag39
ag39
aS'11'
p870
ag42
ag39
ag42
ag44
ag37
ag44
ag53
ag56
ag37
ag42
ag42
aS'10'
p871
ag42
aS'13'
p872
aS'12'
p873
aS'14'
p874
aS'14'
p875
aa(lp876
g35
ag34
ag56
ag44
aS'11'
p877
ag42
aS'11'
p878
aS'11'
p879
ag42
ag42
ag37
ag39
ag44
ag37
ag56
ag37
aS'11'
p880
ag42
aS'10'
p881
aS'11'
p882
aS'13'
p883
aS'12'
p884
aS'14'
p885
aS'14'
p886
aa(lp887
g34
ag34
ag37
ag53
ag39
ag56
aS'11'
p888
ag42
ag39
ag39
ag37
ag56
ag53
ag44
ag36
ag44
ag42
ag56
ag39
aS'10'
p889
aS'12'
p890
ag42
aS'13'
p891
aS'13'
p892
aa(lp893
g34
ag35
ag56
ag37
ag42
ag39
aS'11'
p894
aS'10'
p895
ag42
ag42
ag44
ag37
ag37
ag44
ag42
ag56
aS'11'
p896
aS'10'
p897
aS'12'
p898
aS'11'
p899
aS'13'
p900
aS'14'
p901
aS'15'
p902
aS'15'
p903
aa(lp904
g35
ag53
ag36
ag53
ag39
ag39
ag42
ag42
ag39
ag56
ag37
ag36
ag44
ag44
ag39
ag37
aS'10'
p905
aS'10'
p906
aS'11'
p907
aS'10'
p908
aS'13'
p909
aS'12'
p910
aS'14'
p911
aS'14'
p912
aa(lp913
g34
ag35
ag56
ag37
aS'10'
p914
ag39
aS'11'
p915
aS'12'
p916
ag39
ag42
ag44
ag37
ag37
ag44
ag42
ag56
aS'11'
p917
aS'10'
p918
aS'13'
p919
aS'11'
p920
aS'15'
p921
aS'14'
p922
aS'16'
p923
aS'16'
p924
aa(lp925
g34
ag34
ag36
ag53
ag39
ag39
ag42
aS'10'
p926
ag36
ag39
ag44
ag44
ag44
ag53
ag39
ag56
aS'11'
p927
ag42
aS'12'
p928
ag42
aS'14'
p929
aS'13'
p930
aS'15'
p931
aS'15'
p932
aa(lp933
g34
ag34
ag37
ag53
ag56
ag56
ag42
ag42
ag39
ag56
ag44
ag36
ag44
ag53
ag56
ag37
ag42
ag42
aS'10'
p934
ag42
aS'13'
p935
aS'11'
p936
aS'13'
p937
aS'12'
p938
aa(lp939
g34
ag34
ag37
ag53
ag36
ag36
ag36
ag44
ag37
ag44
ag37
ag36
ag37
ag37
ag56
ag36
aS'10'
p940
ag42
ag42
ag42
aS'11'
p941
aS'12'
p942
aS'13'
p943
aS'13'
p944
aa(lp945
g53
ag35
ag36
ag44
ag42
ag56
aS'11'
p946
aS'10'
p947
ag39
ag42
ag44
ag44
ag44
ag44
ag56
ag36
ag42
ag39
aS'12'
p948
aS'13'
p949
aS'15'
p950
aS'16'
p951
aS'16'
p952
aS'14'
p953
aa(lp954
g34
ag34
ag36
ag53
ag39
ag56
ag42
ag39
ag56
ag56
ag53
ag37
ag44
ag44
ag56
ag37
aS'10'
p955
ag39
aS'12'
p956
aS'11'
p957
aS'13'
p958
aS'14'
p959
aS'15'
p960
aS'15'
p961
aa(lp962
g34
ag35
ag56
ag37
ag42
ag42
aS'11'
p963
aS'11'
p964
ag39
ag42
ag37
ag44
ag37
ag44
ag42
ag56
aS'10'
p965
aS'10'
p966
aS'12'
p967
aS'11'
p968
aS'13'
p969
aS'15'
p970
aS'15'
p971
aS'14'
p972
aa(lp973
g34
ag34
ag36
ag53
ag42
ag39
ag36
ag42
ag37
ag53
ag44
ag37
ag36
ag44
ag42
ag39
aS'13'
p974
aS'11'
p975
aS'12'
p976
aS'10'
p977
aS'15'
p978
aS'14'
p979
aS'16'
p980
aS'16'
p981
aa(lp982
g34
ag35
ag56
ag44
ag39
ag42
ag56
ag42
ag36
ag44
ag36
ag36
ag36
ag37
ag42
ag39
aS'11'
p983
aS'10'
p984
aS'13'
p985
aS'12'
p986
aS'16'
p987
aS'16'
p988
aS'14'
p989
aS'15'
p990
aa(lp991
g34
ag34
ag36
ag44
ag42
ag56
aS'11'
p992
aS'10'
p993
ag36
ag39
ag53
ag53
ag44
ag44
ag39
ag56
aS'10'
p994
ag42
aS'12'
p995
aS'10'
p996
aS'15'
p997
aS'13'
p998
aS'15'
p999
aS'14'
p1000
aa(lp1001
g34
ag34
ag36
ag53
ag42
ag56
aS'11'
p1002
ag42
ag42
ag42
ag37
ag39
ag53
ag37
ag36
ag53
ag42
ag39
ag42
ag42
aS'12'
p1003
aS'10'
p1004
aS'13'
p1005
aS'13'
p1006
aa(lp1007
g34
ag34
ag36
ag53
ag42
ag39
aS'11'
p1008
ag42
ag42
ag39
ag44
ag36
ag53
ag44
ag56
ag44
aS'10'
p1009
ag39
ag42
aS'10'
p1010
aS'12'
p1011
aS'10'
p1012
aS'13'
p1013
aS'13'
p1014
aa(lp1015
g34
ag34
ag36
ag53
ag42
ag39
aS'12'
p1016
ag42
ag42
ag42
ag44
ag56
ag53
ag44
ag36
ag44
aS'10'
p1017
ag39
ag42
ag42
aS'11'
p1018
ag42
aS'13'
p1019
aS'13'
p1020
aa(lp1021
g34
ag34
ag36
ag53
ag42
ag39
ag42
ag42
ag56
ag39
ag44
ag44
ag44
ag53
ag39
ag36
aS'10'
p1022
ag42
aS'11'
p1023
ag42
aS'13'
p1024
aS'12'
p1025
aS'14'
p1026
aS'14'
p1027
aa(lp1028
g34
ag34
ag37
ag53
ag39
ag56
aS'11'
p1029
ag42
ag39
ag42
ag37
ag36
ag53
ag44
ag36
ag44
aS'10'
p1030
ag39
ag39
aS'10'
p1031
aS'12'
p1032
aS'10'
p1033
aS'13'
p1034
aS'13'
p1035
aa(lp1036
g34
ag35
ag56
ag37
aS'10'
p1037
ag39
aS'11'
p1038
aS'11'
p1039
ag39
aS'10'
p1040
ag44
ag37
ag37
ag44
ag42
ag56
aS'11'
p1041
ag42
aS'13'
p1042
aS'12'
p1043
aS'15'
p1044
aS'14'
p1045
aS'16'
p1046
aS'16'
p1047
aa(lp1048
g34
ag35
ag56
ag37
ag42
ag39
aS'12'
p1049
ag42
ag42
aS'10'
p1050
ag37
ag36
ag44
ag44
ag56
ag36
aS'10'
p1051
ag42
aS'11'
p1052
aS'10'
p1053
aS'14'
p1054
aS'13'
p1055
aS'15'
p1056
aS'15'
p1057
aa(lp1058
g34
ag34
ag36
ag53
ag42
ag56
aS'11'
p1059
ag42
ag39
ag39
ag37
ag56
ag53
ag53
ag56
ag37
ag42
ag39
ag42
ag42
aS'12'
p1060
aS'10'
p1061
aS'13'
p1062
aS'13'
p1063
aa(lp1064
g34
ag35
ag56
ag44
ag42
ag42
aS'11'
p1065
aS'11'
p1066
ag56
ag42
ag37
ag44
ag37
ag37
ag42
ag39
aS'11'
p1067
ag42
aS'13'
p1068
aS'12'
p1069
aS'15'
p1070
aS'14'
p1071
aS'16'
p1072
aS'16'
p1073
aa(lp1074
g34
ag34
ag44
ag53
ag37
ag37
ag36
ag44
ag39
ag37
ag37
ag36
ag37
ag37
ag39
ag36
aS'11'
p1075
ag42
ag42
ag42
aS'12'
p1076
aS'10'
p1077
aS'13'
p1078
aS'13'
p1079
aa(lp1080
g34
ag34
ag37
ag44
ag53
ag37
ag36
ag36
ag36
ag37
ag37
ag37
ag37
ag44
ag39
ag56
aS'10'
p1081
ag42
aS'12'
p1082
aS'11'
p1083
aS'14'
p1084
aS'13'
p1085
aS'15'
p1086
aS'15'
p1087
aa(lp1088
g34
ag34
ag36
ag53
ag42
ag39
ag42
ag42
ag56
ag39
ag44
ag44
ag44
ag53
ag39
ag36
aS'10'
p1089
ag42
aS'11'
p1090
ag42
aS'13'
p1091
aS'12'
p1092
aS'14'
p1093
aS'14'
p1094
aa(lp1095
g34
ag34
ag37
ag53
ag39
ag56
ag42
ag42
ag36
ag36
ag44
ag44
ag44
ag44
ag56
ag37
aS'10'
p1096
ag42
ag42
ag42
aS'13'
p1097
aS'11'
p1098
aS'13'
p1099
aS'12'
p1100
aasI20
(F1907948.0
I5203256
F18346.0
tp1101
sg116
(lp1102
I227
aI145
aI222
aI290
aI206
aI217
aI231
aI314
aI150
aI292
aI210
aI205
aI77
aI197
aI212
aI213
aI101
aI128
aI182
aI237
aI234
aI235
aI195
aI211
aI242
aI295
aI254
aI236
aI75
aI101
aI217
aI153
asssI4000
(dp1103
I8
(dp1104
I4000
(F1794470.0
I5203256
F4576.0
tp1105
sI100
(F1806584.0
I5203256
F4576.0
tp1106
sI1000
(F1790731.0
I5203256
F4576.0
tp1107
sg6
(lp1108
(lp1109
g9
ag10
ag11
ag12
ag13
ag14
ag15
ag16
ag17
ag18
ag19
ag20
ag21
ag22
ag23
ag24
ag25
ag26
ag27
ag28
ag29
ag30
ag31
ag32
aa(lp1110
g34
ag35
ag56
ag37
aS'11'
p1111
ag42
aS'14'
p1112
aS'11'
p1113
aS'11'
p1114
aS'11'
p1115
ag44
ag37
ag37
ag44
ag42
ag36
aS'11'
p1116
aS'10'
p1117
aS'12'
p1118
aS'13'
p1119
aS'16'
p1120
aS'15'
p1121
aS'17'
p1122
aS'17'
p1123
aa(lp1124
g34
ag34
ag37
ag53
ag39
ag39
aS'11'
p1125
ag39
ag39
ag39
ag37
ag36
ag53
ag44
ag36
ag44
aS'10'
p1126
ag39
ag39
aS'10'
p1127
aS'12'
p1128
aS'10'
p1129
aS'13'
p1130
aS'13'
p1131
aa(lp1132
g34
ag34
ag36
ag53
ag39
ag56
ag42
ag56
ag56
ag39
ag44
ag37
ag44
ag53
ag56
ag37
aS'10'
p1133
ag39
aS'12'
p1134
aS'11'
p1135
aS'14'
p1136
aS'13'
p1137
aS'15'
p1138
aS'15'
p1139
aa(lp1140
g34
ag34
ag36
ag53
ag42
ag56
ag36
ag42
ag37
ag44
ag44
ag44
ag37
ag44
ag39
ag56
aS'10'
p1141
ag39
aS'11'
p1142
ag42
aS'13'
p1143
aS'12'
p1144
aS'14'
p1145
aS'14'
p1146
aa(lp1147
g34
ag34
ag37
ag53
ag42
ag39
ag42
ag39
ag42
ag39
ag44
ag37
ag44
ag53
ag56
ag37
aS'10'
p1148
ag42
aS'11'
p1149
ag42
aS'13'
p1150
aS'12'
p1151
aS'14'
p1152
aS'14'
p1153
aa(lp1154
g34
ag34
ag37
ag53
ag36
ag56
ag56
ag56
ag36
ag36
ag37
ag37
ag44
ag53
ag42
ag36
ag42
aS'10'
p1155
aS'11'
p1156
ag42
aS'13'
p1157
aS'12'
p1158
aS'14'
p1159
aS'14'
p1160
aa(lp1161
g34
ag34
ag37
ag53
ag44
ag37
ag56
ag37
ag56
ag37
ag37
ag37
ag37
ag44
ag39
ag56
aS'10'
p1162
ag42
aS'13'
p1163
aS'11'
p1164
aS'15'
p1165
aS'12'
p1166
aS'14'
p1167
aS'15'
p1168
aa(lp1169
g34
ag35
ag56
ag37
ag42
ag42
aS'10'
p1170
aS'11'
p1171
ag56
ag42
ag37
ag44
ag37
ag44
ag42
ag39
aS'11'
p1172
aS'10'
p1173
aS'12'
p1174
aS'11'
p1175
aS'14'
p1176
aS'13'
p1177
aS'15'
p1178
aS'15'
p1179
aasI20
(F1881699.0
I5203256
F4576.0
tp1180
sg116
(lp1181
I19
aI46
aI16
aI7
aI15
aI15
aI5
aI39
assI16
(dp1182
I4000
(F1784590.0
I5203256
F9177.0
tp1183
sI100
(F1806648.0
I5203256
F9177.0
tp1184
sI1000
(F1783616.0
I5203256
F9177.0
tp1185
sg6
(lp1186
(lp1187
g9
ag10
ag11
ag12
ag13
ag14
ag15
ag16
ag17
ag18
ag19
ag20
ag21
ag22
ag23
ag24
ag25
ag26
ag27
ag28
ag29
ag30
ag31
ag32
aa(lp1188
g34
ag34
ag37
ag53
aS'10'
p1189
ag56
ag42
ag56
ag36
ag42
ag37
ag44
ag44
ag53
ag39
ag36
ag42
ag42
aS'11'
p1190
ag42
aS'12'
p1191
aS'13'
p1192
aS'14'
p1193
aS'14'
p1194
aa(lp1195
g34
ag35
ag56
ag37
ag42
ag39
aS'14'
p1196
aS'12'
p1197
ag39
aS'10'
p1198
ag44
ag37
ag37
ag44
ag42
ag56
aS'11'
p1199
aS'10'
p1200
aS'13'
p1201
aS'10'
p1202
aS'17'
p1203
aS'15'
p1204
aS'16'
p1205
aS'17'
p1206
aa(lp1207
g34
ag34
ag36
ag53
aS'10'
p1208
ag39
aS'12'
p1209
aS'11'
p1210
ag39
ag42
ag44
ag56
ag53
ag44
ag36
ag44
aS'10'
p1211
ag39
ag39
ag42
aS'13'
p1212
aS'10'
p1213
aS'14'
p1214
aS'14'
p1215
aa(lp1216
g34
ag35
ag56
ag44
ag42
ag39
aS'10'
p1217
aS'10'
p1218
ag39
ag39
ag37
ag36
ag37
ag44
ag39
ag36
aS'10'
p1219
ag42
aS'12'
p1220
aS'11'
p1221
aS'14'
p1222
aS'13'
p1223
aS'15'
p1224
aS'15'
p1225
aa(lp1226
g34
ag34
ag37
ag53
ag44
ag37
ag56
ag36
ag36
ag37
ag37
ag37
ag37
ag44
ag39
ag36
aS'10'
p1227
ag42
aS'13'
p1228
aS'11'
p1229
aS'15'
p1230
aS'12'
p1231
aS'14'
p1232
aS'15'
p1233
aa(lp1234
g34
ag34
ag37
ag53
ag42
ag39
ag42
ag39
ag42
ag39
ag44
ag37
ag44
ag53
ag56
ag37
aS'10'
p1235
ag42
aS'11'
p1236
ag42
aS'13'
p1237
aS'12'
p1238
aS'14'
p1239
aS'14'
p1240
aa(lp1241
g34
ag34
ag44
ag53
ag56
ag36
ag36
ag44
ag56
ag37
ag37
ag56
ag44
ag37
ag42
ag37
aS'11'
p1242
ag42
aS'10'
p1243
aS'10'
p1244
aS'12'
p1245
aS'10'
p1246
aS'13'
p1247
aS'13'
p1248
aa(lp1249
g34
ag35
ag36
ag37
ag42
ag39
aS'14'
p1250
aS'10'
p1251
aS'10'
p1252
aS'15'
p1253
ag37
ag36
ag44
ag44
ag39
ag36
aS'10'
p1254
ag42
aS'11'
p1255
aS'12'
p1256
aS'16'
p1257
aS'13'
p1258
aS'17'
p1259
aS'17'
p1260
aa(lp1261
g34
ag35
ag56
ag37
aS'10'
p1262
ag42
ag39
aS'10'
p1263
ag36
ag56
ag37
ag44
ag36
ag44
ag42
ag39
aS'12'
p1264
aS'10'
p1265
aS'13'
p1266
aS'11'
p1267
aS'16'
p1268
aS'14'
p1269
aS'15'
p1270
aS'16'
p1271
aa(lp1272
g34
ag34
ag56
ag53
ag42
ag39
ag39
aS'11'
p1273
ag37
ag44
ag44
ag37
ag44
ag44
ag56
ag37
aS'10'
p1274
ag42
aS'10'
p1275
aS'10'
p1276
aS'12'
p1277
aS'13'
p1278
aS'14'
p1279
aS'14'
p1280
aa(lp1281
g34
ag34
ag37
ag53
ag37
ag36
ag39
ag37
ag39
ag36
ag37
ag56
ag53
ag37
ag56
ag37
aS'11'
p1282
ag42
ag42
ag42
aS'12'
p1283
aS'10'
p1284
aS'13'
p1285
aS'13'
p1286
aa(lp1287
g34
ag34
ag37
ag53
ag42
ag39
ag56
aS'10'
p1288
ag37
ag44
ag44
ag44
ag37
ag44
ag39
ag56
aS'10'
p1289
ag42
aS'11'
p1290
aS'10'
p1291
aS'14'
p1292
aS'14'
p1293
aS'12'
p1294
aS'13'
p1295
aa(lp1296
g34
ag34
ag36
ag53
ag42
ag39
ag39
aS'12'
p1297
ag37
ag36
ag44
ag37
ag44
ag53
ag42
ag36
aS'10'
p1298
aS'11'
p1299
aS'10'
p1300
aS'10'
p1301
aS'14'
p1302
aS'13'
p1303
aS'15'
p1304
aS'15'
p1305
aa(lp1306
g34
ag35
ag56
ag37
aS'10'
p1307
ag39
aS'12'
p1308
aS'13'
p1309
aS'10'
p1310
ag39
ag44
ag37
ag37
ag44
ag42
ag56
aS'10'
p1311
ag42
aS'12'
p1312
aS'12'
p1313
aS'16'
p1314
aS'14'
p1315
aS'15'
p1316
aS'16'
p1317
aa(lp1318
g34
ag34
ag37
ag53
ag44
ag36
ag42
ag42
ag39
ag56
ag37
ag36
ag44
ag53
ag42
ag56
ag42
aS'11'
p1319
aS'10'
p1320
ag42
aS'12'
p1321
aS'14'
p1322
aS'13'
p1323
aS'14'
p1324
aa(lp1325
g34
ag34
ag37
ag53
ag36
ag37
ag39
ag37
ag36
ag39
ag44
ag37
ag44
ag44
ag39
ag36
aS'11'
p1326
ag42
aS'12'
p1327
aS'10'
p1328
aS'15'
p1329
aS'13'
p1330
aS'14'
p1331
aS'15'
p1332
aasI20
(F1900796.0
I5203256
F9177.0
tp1333
sg116
(lp1334
I4
aI21
aI43
aI13
aI4
aI14
aI1
aI11
aI18
aI4
aI2
aI3
aI8
aI11
aI2
aI3
assI32
(dp1335
I4000
(F1779470.0
I5203256
F18473.0
tp1336
sI100
(F1808640.0
I5203256
F18473.0
tp1337
sI1000
(F1779455.0
I5203256
F18473.0
tp1338
sg6
(lp1339
(lp1340
g9
ag10
ag11
ag12
ag13
ag14
ag15
ag16
ag17
ag18
ag19
ag20
ag21
ag22
ag23
ag24
ag25
ag26
ag27
ag28
ag29
ag30
ag31
ag32
aa(lp1341
g34
ag34
ag37
ag53
aS'10'
p1342
ag56
aS'13'
p1343
aS'11'
p1344
ag56
aS'10'
p1345
ag44
ag36
ag53
ag37
ag36
ag44
ag42
ag39
ag39
ag42
aS'12'
p1346
aS'10'
p1347
aS'14'
p1348
aS'14'
p1349
aa(lp1350
g34
ag34
ag36
ag44
ag56
ag56
ag39
ag42
ag36
ag36
ag53
ag44
ag37
ag53
ag39
ag36
aS'11'
p1351
ag39
aS'12'
p1352
aS'10'
p1353
aS'14'
p1354
aS'13'
p1355
aS'15'
p1356
aS'15'
p1357
aa(lp1358
g34
ag34
ag37
ag53
ag42
ag39
ag42
ag39
ag42
ag39
ag44
ag37
ag44
ag53
ag56
ag37
aS'10'
p1359
ag42
aS'11'
p1360
ag42
aS'14'
p1361
aS'12'
p1362
aS'13'
p1363
aS'14'
p1364
aa(lp1365
g34
ag35
ag56
ag37
aS'12'
p1366
ag42
aS'18'
p1367
aS'12'
p1368
aS'10'
p1369
aS'18'
p1370
ag44
ag36
ag37
ag44
ag42
ag37
aS'10'
p1371
aS'10'
p1372
aS'12'
p1373
aS'13'
p1374
aS'14'
p1375
aS'15'
p1376
aS'16'
p1377
aS'17'
p1378
aa(lp1379
g34
ag34
ag37
ag53
ag44
ag37
ag56
ag36
ag36
ag37
ag37
ag37
ag37
ag44
ag39
ag36
aS'10'
p1380
ag42
aS'13'
p1381
aS'11'
p1382
aS'15'
p1383
aS'12'
p1384
aS'14'
p1385
aS'15'
p1386
aa(lp1387
g34
ag35
ag56
ag37
aS'10'
p1388
ag39
aS'11'
p1389
aS'12'
p1390
ag56
ag42
ag37
ag44
ag37
ag44
ag42
ag39
aS'11'
p1391
aS'10'
p1392
aS'13'
p1393
aS'11'
p1394
aS'16'
p1395
aS'14'
p1396
aS'15'
p1397
aS'16'
p1398
aa(lp1399
g34
ag34
ag56
ag53
aS'10'
p1400
ag39
ag39
aS'10'
p1401
ag37
ag37
ag44
ag44
ag37
ag53
ag42
ag56
aS'10'
p1402
aS'11'
p1403
aS'12'
p1404
ag42
aS'15'
p1405
aS'15'
p1406
aS'13'
p1407
aS'14'
p1408
aa(lp1409
g34
ag35
ag56
ag37
ag42
ag39
aS'10'
p1410
aS'10'
p1411
ag42
ag42
ag37
ag36
ag44
ag44
ag56
ag36
aS'10'
p1412
ag42
aS'12'
p1413
aS'11'
p1414
aS'14'
p1415
aS'13'
p1416
aS'15'
p1417
aS'15'
p1418
aa(lp1419
g34
ag34
ag37
ag53
ag42
ag56
aS'13'
p1420
aS'11'
p1421
aS'13'
p1422
aS'15'
p1423
ag37
ag39
ag53
ag44
ag37
ag44
aS'10'
p1424
ag56
ag39
ag42
aS'14'
p1425
ag42
aS'13'
p1426
aS'15'
p1427
aa(lp1428
g34
ag34
ag37
ag53
ag42
ag56
ag42
ag56
ag36
ag42
ag37
ag44
ag44
ag53
ag39
ag36
ag42
aS'10'
p1429
aS'11'
p1430
ag42
aS'13'
p1431
aS'12'
p1432
aS'14'
p1433
aS'14'
p1434
aa(lp1435
g34
ag35
ag56
ag37
ag42
ag39
aS'14'
p1436
aS'12'
p1437
ag39
aS'11'
p1438
ag37
ag44
ag37
ag44
ag42
ag56
aS'11'
p1439
ag42
aS'13'
p1440
aS'11'
p1441
aS'17'
p1442
aS'15'
p1443
aS'16'
p1444
aS'17'
p1445
aa(lp1446
g34
ag34
ag36
ag53
ag39
ag56
ag36
aS'11'
p1447
ag37
ag44
ag44
ag44
ag37
ag44
ag39
ag56
ag42
ag39
aS'12'
p1448
aS'10'
p1449
aS'15'
p1450
aS'15'
p1451
aS'13'
p1452
aS'14'
p1453
aa(lp1454
g34
ag34
ag44
ag53
ag56
ag36
ag36
ag44
ag56
ag37
ag37
ag56
ag44
ag37
ag42
ag37
aS'11'
p1455
ag42
aS'10'
p1456
aS'10'
p1457
aS'12'
p1458
aS'10'
p1459
aS'13'
p1460
aS'13'
p1461
aa(lp1462
g34
ag34
ag36
ag53
ag36
ag37
ag42
ag37
aS'14'
p1463
ag42
ag44
ag44
ag44
ag44
ag39
ag36
aS'10'
p1464
ag39
aS'10'
p1465
aS'10'
p1466
aS'14'
p1467
aS'11'
p1468
aS'12'
p1469
aS'13'
p1470
aa(lp1471
g34
ag34
ag37
ag53
ag44
ag36
ag42
ag42
ag39
ag56
ag37
ag36
ag44
ag53
ag42
ag56
ag42
aS'11'
p1472
aS'10'
p1473
ag42
aS'12'
p1474
aS'14'
p1475
aS'13'
p1476
aS'14'
p1477
aa(lp1478
g34
ag35
ag56
ag37
ag42
ag39
aS'13'
p1479
ag42
ag42
aS'15'
p1480
ag37
ag36
ag44
ag44
ag56
ag36
aS'10'
p1481
ag39
aS'11'
p1482
aS'12'
p1483
aS'16'
p1484
aS'14'
p1485
aS'17'
p1486
aS'17'
p1487
aa(lp1488
g34
ag34
ag36
ag53
ag42
ag39
ag39
aS'11'
p1489
ag36
ag44
ag37
ag56
ag53
ag44
ag56
ag37
aS'12'
p1490
ag42
ag42
aS'10'
p1491
aS'13'
p1492
aS'14'
p1493
aS'15'
p1494
aS'15'
p1495
aa(lp1496
g34
ag34
ag36
ag53
aS'10'
p1497
ag39
aS'14'
p1498
aS'12'
p1499
aS'10'
p1500
aS'10'
p1501
ag44
ag36
ag53
ag44
ag36
ag44
aS'11'
p1502
ag42
ag39
aS'10'
p1503
aS'13'
p1504
aS'10'
p1505
aS'15'
p1506
aS'15'
p1507
aa(lp1508
g34
ag34
ag36
ag53
ag37
ag56
ag39
ag37
ag39
ag37
ag36
aS'10'
p1509
ag53
ag37
ag56
ag44
aS'11'
p1510
ag42
ag42
aS'10'
p1511
aS'12'
p1512
aS'10'
p1513
aS'13'
p1514
aS'13'
p1515
aa(lp1516
g34
ag35
ag56
ag37
aS'10'
p1517
ag42
aS'19'
p1518
aS'14'
p1519
aS'10'
p1520
aS'19'
p1521
ag44
ag37
ag37
ag44
ag42
ag36
aS'11'
p1522
aS'10'
p1523
aS'12'
p1524
aS'13'
p1525
aS'17'
p1526
aS'18'
p1527
aS'15'
p1528
aS'16'
p1529
aa(lp1530
g34
ag34
ag37
ag53
ag42
ag56
ag56
ag37
ag37
ag56
ag44
ag37
ag44
ag44
ag39
ag37
aS'13'
p1531
aS'10'
p1532
aS'11'
p1533
aS'12'
p1534
aS'16'
p1535
aS'16'
p1536
aS'14'
p1537
aS'15'
p1538
aa(lp1539
g34
ag34
ag36
ag53
aS'10'
p1540
ag42
aS'14'
p1541
aS'12'
p1542
aS'11'
p1543
aS'15'
p1544
ag44
ag37
ag53
ag44
ag56
ag44
aS'12'
p1545
aS'10'
p1546
ag42
aS'12'
p1547
aS'13'
p1548
aS'11'
p1549
aS'16'
p1550
aS'16'
p1551
aa(lp1552
g34
ag34
ag36
ag53
aS'10'
p1553
ag39
aS'10'
p1554
aS'13'
p1555
ag36
ag39
ag44
ag44
ag44
ag53
ag42
ag36
aS'10'
p1556
aS'11'
p1557
aS'10'
p1558
aS'10'
p1559
aS'14'
p1560
aS'12'
p1561
aS'15'
p1562
aS'15'
p1563
aa(lp1564
g34
ag34
ag37
ag53
ag37
ag37
ag56
ag44
aS'10'
p1565
aS'10'
p1566
ag44
ag37
ag37
ag44
ag42
ag36
aS'10'
p1567
aS'11'
p1568
aS'12'
p1569
ag42
aS'15'
p1570
aS'15'
p1571
aS'13'
p1572
aS'14'
p1573
aa(lp1574
g34
ag34
ag36
ag53
ag42
ag39
aS'13'
p1575
aS'15'
p1576
ag39
ag39
ag44
ag56
ag53
ag44
ag36
ag44
aS'11'
p1577
ag39
ag42
aS'10'
p1578
aS'12'
p1579
ag42
aS'15'
p1580
aS'14'
p1581
aa(lp1582
g34
ag34
ag37
ag53
ag39
ag56
ag36
ag39
ag37
ag44
ag44
ag37
ag37
ag44
ag56
ag36
aS'11'
p1583
ag39
aS'10'
p1584
ag42
aS'14'
p1585
aS'14'
p1586
aS'12'
p1587
aS'13'
p1588
aa(lp1589
g34
ag35
ag56
ag44
aS'10'
p1590
ag39
ag36
ag56
ag36
ag36
ag37
ag37
ag36
ag37
ag39
ag39
aS'11'
p1591
aS'10'
p1592
aS'12'
p1593
aS'10'
p1594
aS'15'
p1595
aS'15'
p1596
aS'13'
p1597
aS'14'
p1598
aa(lp1599
g34
ag35
ag56
ag37
aS'11'
p1600
ag39
aS'12'
p1601
aS'13'
p1602
ag42
ag39
ag44
ag37
ag37
ag44
ag42
ag56
aS'11'
p1603
ag42
aS'12'
p1604
aS'12'
p1605
aS'16'
p1606
aS'14'
p1607
aS'15'
p1608
aS'16'
p1609
aa(lp1610
g34
ag34
ag36
ag53
aS'13'
p1611
ag39
aS'12'
p1612
aS'17'
p1613
aS'11'
p1614
aS'17'
p1615
ag37
aS'10'
p1616
ag53
ag53
ag39
ag44
aS'10'
p1617
ag42
aS'11'
p1618
ag42
aS'14'
p1619
aS'11'
p1620
aS'15'
p1621
aS'16'
p1622
aa(lp1623
g34
ag34
ag37
ag53
aS'10'
p1624
ag39
aS'11'
p1625
aS'10'
p1626
ag39
ag42
ag37
ag39
ag53
ag44
ag37
ag44
ag42
ag56
ag42
ag42
aS'12'
p1627
aS'10'
p1628
aS'13'
p1629
aS'13'
p1630
aa(lp1631
g34
ag34
ag37
ag53
ag44
ag36
ag56
ag44
ag42
ag39
ag37
ag36
ag44
ag37
ag56
ag37
aS'12'
p1632
ag39
ag39
aS'10'
p1633
aS'14'
p1634
aS'11'
p1635
aS'13'
p1636
aS'14'
p1637
aa(lp1638
g34
ag34
ag36
ag53
ag39
ag56
ag36
aS'12'
p1639
ag37
ag37
ag37
ag37
ag44
ag53
ag39
ag56
ag42
aS'11'
p1640
aS'10'
p1641
ag39
aS'15'
p1642
aS'13'
p1643
aS'14'
p1644
aS'15'
p1645
aasI20
(F1932614.0
I5203256
F18473.0
tp1646
sg116
(lp1647
I8
aI7
aI12
aI4
aI4
aI11
aI3
aI11
aI6
aI5
aI19
aI2
aI1
aI1
aI2
aI7
aI2
aI5
aI1
aI3
aI1
aI6
aI4
aI1
aI4
aI1
aI3
aI9
aI2
aI14
aI1
aI2
asssI20
(dp1648
I8
(dp1649
I4000
(F1831230.0
I5203256
F4554.0
tp1650
sI100
(F1832815.0
I5203256
F4554.0
tp1651
sI1000
(F1828089.0
I5203256
F4554.0
tp1652
sg6
(lp1653
(lp1654
g9
ag10
ag11
ag12
ag13
ag14
ag15
ag16
ag17
ag18
ag19
ag20
ag21
ag22
ag23
ag24
ag25
ag26
ag27
ag28
ag29
ag30
ag31
ag32
aa(lp1655
g34
ag35
ag56
ag37
ag42
ag42
aS'10'
p1656
aS'11'
p1657
ag39
ag42
ag36
ag36
ag37
ag53
ag42
ag56
aS'11'
p1658
aS'10'
p1659
aS'12'
p1660
aS'11'
p1661
aS'14'
p1662
aS'13'
p1663
aS'15'
p1664
aS'15'
p1665
aa(lp1666
g34
ag34
ag37
ag53
ag56
ag56
ag39
ag56
ag56
ag56
ag44
ag37
ag44
ag44
ag56
ag44
ag42
ag39
ag42
ag42
aS'11'
p1667
aS'10'
p1668
aS'12'
p1669
aS'12'
p1670
aa(lp1671
g35
ag34
ag56
ag37
ag39
ag39
ag42
ag39
ag56
ag56
ag37
ag37
ag37
ag44
ag39
ag36
aS'10'
p1672
ag42
aS'11'
p1673
ag42
aS'13'
p1674
aS'12'
p1675
aS'14'
p1676
aS'14'
p1677
aa(lp1678
g35
ag53
ag36
ag44
ag39
ag39
aS'10'
p1679
ag42
ag39
ag39
ag37
ag36
ag53
ag44
ag56
ag37
aS'11'
p1680
ag42
aS'10'
p1681
aS'10'
p1682
aS'13'
p1683
aS'12'
p1684
aS'14'
p1685
aS'14'
p1686
aa(lp1687
g53
ag35
ag36
ag44
ag39
ag39
ag42
ag42
ag56
ag39
ag44
ag44
ag44
ag44
ag39
ag36
aS'10'
p1688
ag42
aS'12'
p1689
aS'11'
p1690
aS'14'
p1691
aS'13'
p1692
aS'15'
p1693
aS'15'
p1694
aa(lp1695
g34
ag34
ag37
ag53
ag39
ag56
aS'10'
p1696
ag42
ag39
ag39
ag37
ag36
ag53
ag44
ag36
ag44
aS'10'
p1697
ag39
ag42
aS'10'
p1698
aS'12'
p1699
aS'11'
p1700
aS'13'
p1701
aS'13'
p1702
aa(lp1703
g34
ag35
ag56
ag37
ag39
ag39
aS'10'
p1704
ag42
ag56
ag56
ag44
ag44
ag36
ag37
ag42
ag56
aS'11'
p1705
ag42
aS'13'
p1706
aS'12'
p1707
aS'15'
p1708
aS'14'
p1709
aS'16'
p1710
aS'16'
p1711
aa(lp1712
g34
ag34
ag37
ag53
ag56
ag56
ag39
ag56
ag56
ag56
ag44
ag37
ag44
ag44
ag56
ag44
ag42
ag39
ag42
ag42
aS'11'
p1713
aS'10'
p1714
aS'12'
p1715
aS'12'
p1716
aasI20
(F1875703.0
I5203256
F4554.0
tp1717
sg116
(lp1718
I3701
aI3682
aI4746
aI3531
aI4238
aI4118
aI4549
aI3955
assI16
(dp1719
I4000
(F1837925.0
I5203256
F9163.0
tp1720
sI100
(F1828219.0
I5203256
F9163.0
tp1721
sI1000
(F1827628.0
I5203256
F9163.0
tp1722
sg6
(lp1723
(lp1724
g9
ag10
ag11
ag12
ag13
ag14
ag15
ag16
ag17
ag18
ag19
ag20
ag21
ag22
ag23
ag24
ag25
ag26
ag27
ag28
ag29
ag30
ag31
ag32
aa(lp1725
g34
ag34
ag37
ag53
ag44
ag37
ag36
ag37
ag36
ag44
ag37
ag36
ag37
ag37
ag39
ag56
aS'10'
p1726
aS'10'
p1727
aS'11'
p1728
aS'10'
p1729
aS'12'
p1730
aS'13'
p1731
aS'14'
p1732
aS'14'
p1733
aa(lp1734
g34
ag35
ag36
ag37
ag42
ag39
aS'10'
p1735
aS'10'
p1736
ag36
ag56
ag37
ag44
ag37
ag37
ag39
ag56
aS'10'
p1737
ag42
aS'12'
p1738
aS'11'
p1739
aS'14'
p1740
aS'13'
p1741
aS'15'
p1742
aS'15'
p1743
aa(lp1744
g34
ag34
ag36
ag44
ag39
ag39
aS'10'
p1745
ag42
ag56
ag39
ag37
ag37
ag44
ag34
ag39
ag36
aS'10'
p1746
ag42
aS'11'
p1747
aS'10'
p1748
aS'14'
p1749
aS'12'
p1750
aS'13'
p1751
aS'14'
p1752
aa(lp1753
g34
ag35
ag56
ag37
ag42
ag42
aS'10'
p1754
aS'11'
p1755
ag39
ag42
ag37
ag36
ag36
ag53
ag42
ag56
aS'11'
p1756
aS'10'
p1757
aS'12'
p1758
aS'11'
p1759
aS'14'
p1760
aS'13'
p1761
aS'15'
p1762
aS'15'
p1763
aa(lp1764
g35
ag53
ag36
ag53
ag39
ag39
ag42
ag39
ag39
ag39
ag37
ag36
ag44
ag44
ag39
ag37
aS'10'
p1765
ag42
aS'10'
p1766
aS'10'
p1767
aS'12'
p1768
aS'11'
p1769
aS'13'
p1770
aS'13'
p1771
aa(lp1772
g34
ag35
ag56
ag37
aS'10'
p1773
ag42
aS'12'
p1774
aS'10'
p1775
ag42
ag42
ag36
ag56
ag53
ag37
ag39
ag36
aS'11'
p1776
ag42
aS'11'
p1777
aS'11'
p1778
aS'14'
p1779
aS'13'
p1780
aS'15'
p1781
aS'15'
p1782
aa(lp1783
g35
ag34
ag56
ag37
ag42
ag39
ag42
ag42
ag56
ag56
ag44
ag37
ag37
ag37
ag56
ag36
aS'10'
p1784
ag42
aS'11'
p1785
ag42
aS'14'
p1786
aS'12'
p1787
aS'13'
p1788
aS'14'
p1789
aa(lp1790
g34
ag34
ag37
ag53
ag39
ag56
ag42
aS'10'
p1791
ag36
ag56
ag44
ag53
ag37
ag44
ag39
ag36
aS'10'
p1792
ag42
aS'11'
p1793
aS'10'
p1794
aS'13'
p1795
aS'12'
p1796
aS'14'
p1797
aS'14'
p1798
aa(lp1799
g34
ag34
ag36
ag53
ag39
ag56
ag42
ag39
ag56
ag56
ag44
ag37
ag44
ag53
ag56
ag37
aS'10'
p1800
ag42
aS'10'
p1801
aS'10'
p1802
aS'12'
p1803
aS'11'
p1804
aS'13'
p1805
aS'13'
p1806
aa(lp1807
g53
ag35
ag36
ag53
ag39
ag39
ag42
ag42
ag39
ag56
ag37
ag37
ag44
ag44
ag39
ag36
aS'10'
p1808
ag42
aS'12'
p1809
aS'11'
p1810
aS'14'
p1811
aS'13'
p1812
aS'15'
p1813
aS'15'
p1814
aa(lp1815
g35
ag53
ag36
ag44
ag39
ag39
ag42
ag39
ag56
ag56
ag44
ag37
ag44
ag44
ag56
ag37
ag42
ag39
aS'10'
p1816
ag42
aS'12'
p1817
aS'11'
p1818
aS'13'
p1819
aS'13'
p1820
aa(lp1821
g34
ag34
ag37
ag53
ag42
ag56
aS'11'
p1822
ag42
ag39
ag39
ag37
ag36
ag44
ag44
ag36
ag53
aS'10'
p1823
ag39
ag42
ag42
aS'12'
p1824
ag42
aS'13'
p1825
aS'13'
p1826
aa(lp1827
g53
ag35
ag36
ag44
ag39
ag39
ag42
ag42
ag56
ag39
ag44
ag44
ag44
ag44
ag39
ag36
aS'10'
p1828
ag42
aS'12'
p1829
aS'11'
p1830
aS'14'
p1831
aS'13'
p1832
aS'15'
p1833
aS'15'
p1834
aa(lp1835
g34
ag34
ag36
ag44
ag42
ag39
aS'10'
p1836
ag42
ag39
ag42
ag37
ag36
ag34
ag44
ag56
ag37
aS'10'
p1837
ag39
ag42
aS'10'
p1838
aS'12'
p1839
aS'11'
p1840
aS'13'
p1841
aS'13'
p1842
aa(lp1843
g34
ag35
ag56
ag37
ag42
ag42
aS'11'
p1844
aS'10'
p1845
ag42
ag39
ag53
ag36
ag36
ag37
ag42
ag56
aS'11'
p1846
aS'10'
p1847
aS'12'
p1848
aS'11'
p1849
aS'14'
p1850
aS'13'
p1851
aS'15'
p1852
aS'15'
p1853
aa(lp1854
g34
ag34
ag36
ag34
ag42
ag39
aS'11'
p1855
aS'10'
p1856
ag42
ag42
ag36
ag56
ag53
ag37
ag56
ag37
aS'11'
p1857
ag42
aS'10'
p1858
aS'11'
p1859
aS'13'
p1860
aS'12'
p1861
aS'14'
p1862
aS'14'
p1863
aasI20
(F1878885.0
I5203256
F9163.0
tp1864
sg116
(lp1865
I924
aI2002
aI2511
aI2472
aI2008
aI2744
aI2220
aI1869
aI1793
aI2167
aI1867
aI1668
aI2081
aI2299
aI2154
aI1741
assI32
(dp1866
I4000
(F1832628.0
I5203256
F18373.0
tp1867
sI100
(F1824352.0
I5203256
F18373.0
tp1868
sI1000
(F1822475.0
I5203256
F18373.0
tp1869
sg6
(lp1870
(lp1871
g9
ag10
ag11
ag12
ag13
ag14
ag15
ag16
ag17
ag18
ag19
ag20
ag21
ag22
ag23
ag24
ag25
ag26
ag27
ag28
ag29
ag30
ag31
ag32
aa(lp1872
g53
ag35
ag36
ag44
ag56
ag56
ag42
ag42
ag56
ag39
ag37
ag53
ag37
ag44
ag39
ag56
aS'11'
p1873
ag42
aS'12'
p1874
aS'10'
p1875
aS'14'
p1876
aS'13'
p1877
aS'15'
p1878
aS'15'
p1879
aa(lp1880
g35
ag53
ag36
ag53
ag56
ag39
ag42
ag56
ag56
ag39
ag37
ag36
ag44
ag44
ag56
ag36
aS'10'
p1881
ag42
aS'10'
p1882
aS'10'
p1883
aS'12'
p1884
aS'11'
p1885
aS'13'
p1886
aS'13'
p1887
aa(lp1888
g53
ag35
ag36
ag44
ag39
ag56
aS'11'
p1889
ag42
ag39
ag39
ag53
ag37
ag37
ag44
ag39
ag36
aS'11'
p1890
ag39
aS'11'
p1891
aS'12'
p1892
aS'13'
p1893
aS'15'
p1894
aS'15'
p1895
aS'14'
p1896
aa(lp1897
g35
ag34
ag36
ag37
ag42
ag39
aS'10'
p1898
ag42
ag39
ag42
ag37
ag36
ag44
ag37
ag56
ag37
aS'10'
p1899
ag39
ag42
aS'10'
p1900
aS'12'
p1901
aS'11'
p1902
aS'13'
p1903
aS'13'
p1904
aa(lp1905
g34
ag35
ag56
ag37
aS'10'
p1906
ag42
aS'11'
p1907
aS'11'
p1908
ag39
ag42
ag37
ag36
ag36
ag53
ag39
ag56
aS'12'
p1909
aS'10'
p1910
aS'13'
p1911
aS'11'
p1912
aS'15'
p1913
aS'14'
p1914
aS'16'
p1915
aS'16'
p1916
aa(lp1917
g35
ag34
ag56
ag44
ag42
ag42
aS'12'
p1918
aS'10'
p1919
ag39
ag42
ag37
ag44
ag37
ag37
ag42
ag56
aS'11'
p1920
aS'10'
p1921
aS'11'
p1922
aS'11'
p1923
aS'14'
p1924
aS'13'
p1925
aS'15'
p1926
aS'15'
p1927
aa(lp1928
g34
ag34
ag37
ag53
ag56
ag56
ag39
ag42
ag56
ag39
ag44
ag37
ag44
ag53
ag56
ag36
ag42
ag42
aS'11'
p1929
aS'10'
p1930
aS'13'
p1931
aS'12'
p1932
aS'14'
p1933
aS'14'
p1934
aa(lp1935
g34
ag34
ag37
ag53
ag56
ag56
ag36
ag36
ag37
ag53
ag37
ag36
ag37
ag37
ag56
ag36
ag42
ag42
aS'11'
p1936
ag42
aS'12'
p1937
aS'10'
p1938
aS'13'
p1939
aS'13'
p1940
aa(lp1941
g35
ag34
ag56
ag37
ag42
ag42
aS'11'
p1942
aS'11'
p1943
ag39
ag42
ag36
ag36
ag37
ag53
ag42
ag56
aS'11'
p1944
aS'10'
p1945
aS'12'
p1946
aS'10'
p1947
aS'15'
p1948
aS'13'
p1949
aS'14'
p1950
aS'15'
p1951
aa(lp1952
g34
ag34
ag56
ag34
ag39
ag39
ag39
ag39
ag56
ag56
ag37
ag36
ag44
ag44
ag39
ag37
aS'11'
p1953
ag42
aS'11'
p1954
aS'11'
p1955
aS'13'
p1956
aS'12'
p1957
aS'14'
p1958
aS'14'
p1959
aa(lp1960
g34
ag35
ag39
ag36
ag42
ag42
aS'10'
p1961
aS'10'
p1962
ag56
ag42
ag37
ag53
ag36
ag37
ag42
ag56
aS'11'
p1963
aS'10'
p1964
aS'13'
p1965
aS'12'
p1966
aS'15'
p1967
aS'14'
p1968
aS'16'
p1969
aS'16'
p1970
aa(lp1971
g34
ag35
ag56
ag37
aS'10'
p1972
ag39
aS'12'
p1973
aS'10'
p1974
ag39
ag42
ag37
ag36
ag44
ag44
ag56
ag36
aS'11'
p1975
ag42
aS'11'
p1976
aS'11'
p1977
aS'14'
p1978
aS'13'
p1979
aS'15'
p1980
aS'15'
p1981
aa(lp1982
g34
ag34
ag36
ag53
ag39
ag56
ag42
ag39
ag56
ag39
ag44
ag37
ag44
ag53
ag56
ag37
ag42
ag39
aS'10'
p1983
ag42
aS'12'
p1984
aS'11'
p1985
aS'13'
p1986
aS'13'
p1987
aa(lp1988
g34
ag34
ag36
ag34
ag39
ag39
ag42
ag56
ag56
ag56
ag37
ag37
ag44
ag37
ag56
ag37
aS'10'
p1989
ag42
aS'10'
p1990
aS'10'
p1991
aS'12'
p1992
aS'11'
p1993
aS'13'
p1994
aS'13'
p1995
aa(lp1996
g34
ag34
ag37
ag53
ag39
ag56
ag42
ag39
ag36
ag39
ag44
ag53
ag37
ag44
ag39
ag36
ag42
ag42
aS'11'
p1997
aS'10'
p1998
aS'13'
p1999
aS'12'
p2000
aS'14'
p2001
aS'14'
p2002
aa(lp2003
g34
ag34
ag36
ag53
ag39
ag56
ag42
ag39
ag56
ag39
ag53
ag37
ag44
ag44
ag56
ag37
ag42
ag39
aS'10'
p2004
ag42
aS'12'
p2005
aS'11'
p2006
aS'13'
p2007
aS'13'
p2008
aa(lp2009
g35
ag53
ag36
ag53
ag42
ag39
aS'11'
p2010
aS'10'
p2011
ag42
ag42
ag36
ag56
ag53
ag37
ag56
ag37
aS'11'
p2012
ag42
aS'10'
p2013
aS'11'
p2014
aS'13'
p2015
aS'12'
p2016
aS'14'
p2017
aS'14'
p2018
aa(lp2019
g53
ag35
ag36
ag44
ag42
ag56
aS'10'
p2020
aS'10'
p2021
ag56
ag39
ag44
ag37
ag37
ag53
ag39
ag36
aS'10'
p2022
ag42
aS'12'
p2023
aS'11'
p2024
aS'14'
p2025
aS'13'
p2026
aS'15'
p2027
aS'15'
p2028
aa(lp2029
g34
ag35
ag56
ag36
ag42
ag39
aS'10'
p2030
aS'11'
p2031
ag39
ag39
ag53
ag36
ag36
ag37
ag39
ag36
aS'10'
p2032
ag42
aS'12'
p2033
aS'10'
p2034
aS'14'
p2035
aS'13'
p2036
aS'15'
p2037
aS'15'
p2038
aa(lp2039
g34
ag34
ag37
ag53
ag36
ag56
ag36
ag56
ag37
ag53
ag37
ag37
ag37
ag37
ag39
ag56
aS'10'
p2040
ag42
aS'11'
p2041
aS'12'
p2042
aS'14'
p2043
aS'13'
p2044
aS'15'
p2045
aS'15'
p2046
aa(lp2047
g53
ag35
ag36
ag53
ag39
ag39
ag42
ag39
ag39
ag39
ag44
ag36
ag37
ag44
ag39
ag37
ag42
ag42
aS'11'
p2048
aS'10'
p2049
aS'13'
p2050
aS'12'
p2051
aS'14'
p2052
aS'14'
p2053
aa(lp2054
g53
ag35
ag36
ag44
ag42
ag39
aS'10'
p2055
ag42
ag39
ag39
ag37
ag36
ag53
ag44
ag56
ag37
aS'10'
p2056
ag39
aS'11'
p2057
aS'10'
p2058
aS'13'
p2059
aS'12'
p2060
aS'14'
p2061
aS'14'
p2062
aa(lp2063
g53
ag35
ag36
ag44
ag39
ag39
ag42
aS'10'
p2064
ag56
ag39
ag44
ag44
ag44
ag44
ag39
ag36
aS'11'
p2065
ag39
aS'13'
p2066
aS'12'
p2067
aS'15'
p2068
aS'14'
p2069
aS'16'
p2070
aS'16'
p2071
aa(lp2072
g34
ag34
ag37
ag53
ag42
ag56
aS'11'
p2073
ag39
ag39
ag42
ag37
ag36
ag44
ag44
ag36
ag53
ag42
ag39
ag42
ag42
aS'12'
p2074
aS'10'
p2075
aS'13'
p2076
aS'13'
p2077
aa(lp2078
g34
ag35
ag56
ag36
ag42
ag42
aS'10'
p2079
aS'11'
p2080
ag39
ag42
ag37
ag53
ag36
ag37
ag42
ag56
aS'11'
p2081
aS'10'
p2082
aS'12'
p2083
aS'11'
p2084
aS'14'
p2085
aS'13'
p2086
aS'15'
p2087
aS'15'
p2088
aa(lp2089
g35
ag53
ag36
ag44
ag39
ag39
ag42
ag39
ag56
ag56
ag37
ag37
ag44
ag44
ag56
ag44
ag42
ag39
ag42
aS'10'
p2090
aS'12'
p2091
aS'11'
p2092
aS'13'
p2093
aS'13'
p2094
aa(lp2095
g34
ag34
ag36
ag53
ag42
ag39
aS'11'
p2096
aS'10'
p2097
ag42
ag42
ag36
ag56
ag34
ag37
ag56
ag37
aS'12'
p2098
ag42
aS'10'
p2099
aS'11'
p2100
aS'14'
p2101
aS'11'
p2102
aS'14'
p2103
aS'13'
p2104
aa(lp2105
g35
ag34
ag56
ag44
ag42
ag39
aS'10'
p2106
ag42
ag39
ag42
ag44
ag36
ag37
ag37
ag39
ag36
aS'10'
p2107
ag42
aS'11'
p2108
aS'10'
p2109
aS'13'
p2110
aS'12'
p2111
aS'14'
p2112
aS'14'
p2113
aa(lp2114
g34
ag34
ag36
ag34
ag42
ag39
aS'10'
p2115
aS'10'
p2116
ag42
aS'10'
p2117
ag36
ag56
ag53
ag37
ag56
ag37
aS'10'
p2118
ag42
aS'10'
p2119
aS'11'
p2120
aS'13'
p2121
aS'12'
p2122
aS'14'
p2123
aS'14'
p2124
aa(lp2125
g34
ag35
ag56
ag37
ag42
ag42
aS'11'
p2126
aS'10'
p2127
ag39
ag42
ag36
ag36
ag37
ag53
ag42
ag56
aS'11'
p2128
aS'10'
p2129
aS'12'
p2130
aS'11'
p2131
aS'14'
p2132
aS'13'
p2133
aS'15'
p2134
aS'15'
p2135
aa(lp2136
g34
ag34
ag37
ag44
ag53
ag44
ag56
ag44
ag56
ag37
ag36
ag36
ag37
ag37
ag39
ag56
ag42
aS'10'
p2137
aS'12'
p2138
aS'11'
p2139
aS'14'
p2140
aS'13'
p2141
aS'15'
p2142
aS'15'
p2143
aa(lp2144
g34
ag34
ag36
ag53
ag42
ag39
aS'10'
p2145
ag42
ag39
ag42
ag37
ag56
ag53
ag37
ag36
ag53
aS'11'
p2146
ag39
ag42
aS'10'
p2147
aS'12'
p2148
aS'10'
p2149
aS'13'
p2150
aS'13'
p2151
aasI20
(F1892792.0
I5203256
F18373.0
tp2152
sg116
(lp2153
I755
aI816
aI1208
aI1220
aI1406
aI925
aI1157
aI518
aI1021
aI784
aI1080
aI1464
aI1390
aI849
aI1053
aI1136
aI1248
aI803
aI1099
aI523
aI883
aI1166
aI813
aI986
aI1043
aI900
aI1423
aI1070
aI1045
aI1331
aI399
aI1006
asss.