(dp0
I1000
(dp1
I8
(dp2
I1000
(F5072044.0
I5203256
F49615.0
tp3
sI100
(F5083525.0
I5203256
F49615.0
tp4
sS'train_labels_count'
p5
(lp6
I23
aI119
aI34
aI36
aI73
aI214
aI73
aI78
asI20
(F5141222.0
I5203256
F49615.0
tp7
sS'huffman_lengths'
p8
(lp9
(lp10
S'\x00'
p11
aS'\x83'
p12
aS'\x04'
p13
aS'\x87'
p14
aS'\x08'
p15
aS'\x8b'
p16
aS'\x0c'
p17
aS'\x8f'
p18
aS'\x10'
p19
aS'\x93'
p20
aS'\x14'
p21
aS'\x97'
p22
aS'\x18'
p23
aS'\x9b'
p24
aS'\x1c'
p25
aS'\x9f'
p26
aS' '
p27
aS'\xa3'
p28
aS'$'
p29
aS'\xa7'
p30
aS'('
p31
aS'\xab'
p32
aS','
p33
aS'\xaf'
p34
aS'0'
p35
aS'\xb3'
p36
aS'4'
p37
aS'\xb7'
p38
aS'8'
p39
aS'\xbb'
p40
aS'<'
p41
aS'\xbf'
p42
aS'@'
p43
aS'\xc3'
p44
aS'D'
p45
aS'\xc7'
p46
aS'H'
p47
aS'\xcb'
p48
aS'L'
p49
aS'\xcf'
p50
aS'P'
p51
aS'\xd3'
p52
aS'T'
p53
aS'\xd7'
p54
aS'X'
p55
aS'\xdb'
p56
aS'\\'
p57
aS'\xdf'
p58
aS'`'
p59
aS'\xe3'
p60
aS'd'
p61
aS'\xe7'
p62
aS'h'
p63
aS'\xeb'
p64
aS'l'
p65
aS'\xef'
p66
aS'p'
p67
aS'\xf3'
p68
aS't'
p69
aS'\xf7'
p70
aS'x'
p71
aS'\xfb'
p72
aS'|'
p73
aS'\xff'
p74
aS'\x80'
p75
aS'\x03'
p76
aS'\x84'
p77
aS'\x07'
p78
aS'\x88'
p79
aS'\x0b'
p80
aS'\x8c'
p81
aS'\x0f'
p82
aS'\x90'
p83
aS'\x13'
p84
aS'\x94'
p85
aS'\x17'
p86
aS'\x98'
p87
aS'\x1b'
p88
aS'\x9c'
p89
aS'\x1f'
p90
aS'\xa0'
p91
aS'#'
p92
aS'\xa4'
p93
aS"'"
p94
aS'\xa8'
p95
aS'+'
p96
aS'\xac'
p97
aS'/'
p98
aS'\xb0'
p99
aS'3'
p100
aS'\xb4'
p101
aS'7'
p102
aS'\xb8'
p103
aS';'
p104
aS'\xbc'
p105
aS'?'
p106
aS'\xc0'
p107
aS'C'
p108
aS'\xc4'
p109
aS'G'
p110
aS'\xc8'
p111
aS'K'
p112
aS'\xcc'
p113
aS'O'
p114
aS'\xd0'
p115
aS'S'
p116
aS'\xd4'
p117
aS'W'
p118
aS'\xd8'
p119
aS'['
p120
aS'\xdc'
p121
aS'_'
p122
aS'\xe0'
p123
aS'c'
p124
aS'\xe4'
p125
aS'g'
p126
aS'\xe8'
p127
aS'k'
p128
aS'\xec'
p129
aS'o'
p130
aS'\xf0'
p131
aS's'
p132
aS'\xf4'
p133
aS'w'
p134
aS'\xf8'
p135
aS'{'
p136
aS'\xfc'
p137
aS'\x7f'
p138
aS'\x81'
p139
aS'\x02'
p140
aS'\x85'
p141
aS'\x06'
p142
aS'\x89'
p143
aS'\n'
p144
aS'\x8d'
p145
aS'\x0e'
p146
aS'\x91'
p147
aS'\x12'
p148
aS'\x95'
p149
aS'\x16'
p150
aS'\x99'
p151
aS'\x1a'
p152
aS'\x9d'
p153
aS'\x1e'
p154
aS'\xa1'
p155
aS'"'
p156
aS'\xa5'
p157
aS'&'
p158
aS'\xa9'
p159
aS'*'
p160
aS'\xad'
p161
aS'.'
p162
aS'\xb1'
p163
aS'2'
p164
aS'\xb5'
p165
aS'6'
p166
aS'\xb9'
p167
aS':'
p168
aS'\xbd'
p169
aS'>'
p170
aS'\xc1'
p171
aS'B'
p172
aS'\xc5'
p173
aS'F'
p174
aS'\xc9'
p175
aS'J'
p176
aS'\xcd'
p177
aS'N'
p178
aS'\xd1'
p179
aS'R'
p180
aS'\xd5'
p181
aS'V'
p182
aS'\xd9'
p183
aS'Z'
p184
aS'\xdd'
p185
aS'^'
p186
aS'\xe1'
p187
aS'b'
p188
aS'\xe5'
p189
aS'f'
p190
aS'\xe9'
p191
aS'j'
p192
aS'\xed'
p193
aS'n'
p194
aS'\xf1'
p195
aS'r'
p196
aS'\xf5'
p197
aS'v'
p198
aS'\xf9'
p199
aS'z'
p200
aS'\xfd'
p201
aS'~'
p202
aS'\x01'
p203
aS'\x82'
p204
aS'\x05'
p205
aS'\x86'
p206
aS'\t'
p207
aS'\x8a'
p208
aS'\r'
p209
aS'\x8e'
p210
aS'\x11'
p211
aS'\x92'
p212
aS'\x15'
p213
aS'\x96'
p214
aS'\x19'
p215
aS'\x9a'
p216
aS'\x1d'
p217
aS'\x9e'
p218
aS'!'
p219
aS'\xa2'
p220
aS'%'
p221
aS'\xa6'
p222
aS')'
p223
aS'\xaa'
p224
aS'-'
p225
aS'\xae'
p226
aS'1'
p227
aS'\xb2'
p228
aS'5'
p229
aS'\xb6'
p230
aS'9'
p231
aS'\xba'
p232
aS'='
p233
aS'\xbe'
p234
aS'A'
p235
aS'\xc2'
p236
aS'E'
p237
aS'\xc6'
p238
aS'I'
p239
aS'\xca'
p240
aS'M'
p241
aS'\xce'
p242
aS'Q'
p243
aS'\xd2'
p244
aS'U'
p245
aS'\xd6'
p246
aS'Y'
p247
aS'\xda'
p248
aS']'
p249
aS'\xde'
p250
aS'a'
p251
aS'\xe2'
p252
aS'e'
p253
aS'\xe6'
p254
aS'i'
p255
aS'\xea'
p256
aS'm'
p257
aS'\xee'
p258
aS'q'
p259
aS'\xf2'
p260
aS'u'
p261
aS'\xf6'
p262
aS'y'
p263
aS'\xfa'
p264
aS'}'
p265
aS'\xfe'
p266
aa(lp267
g166
ag39
ag102
ag231
ag102
ag231
ag102
ag39
ag102
ag39
ag102
ag231
ag102
ag231
ag102
ag39
ag39
ag231
ag39
ag231
ag39
ag231
ag39
ag231
ag39
ag39
ag39
ag231
ag39
ag231
ag39
ag102
ag39
ag39
ag39
ag231
ag39
ag231
ag39
ag39
ag39
ag39
ag39
ag39
ag39
ag231
ag39
ag231
ag39
ag231
ag39
ag231
ag39
ag231
ag231
ag231
ag39
ag231
ag39
ag231
ag39
ag231
ag231
ag231
ag39
ag166
ag39
ag102
ag231
ag102
ag39
ag102
ag231
ag39
ag231
ag102
ag39
ag39
ag231
ag102
ag231
ag39
ag231
ag39
ag231
ag39
ag231
ag102
ag39
ag39
ag231
ag39
ag39
ag39
ag231
ag39
ag231
ag39
ag231
ag39
ag231
ag39
ag231
ag39
ag231
ag39
ag231
ag39
ag231
ag39
ag231
ag37
ag231
ag39
ag231
ag39
ag231
ag39
ag231
ag39
ag231
ag231
ag231
ag39
ag231
ag39
ag231
ag39
ag39
ag102
ag231
ag102
ag231
ag102
ag39
ag102
ag231
ag102
ag39
ag102
ag39
ag102
ag39
ag39
ag39
ag39
ag231
ag39
ag231
ag39
ag231
ag39
ag39
ag39
ag231
ag39
ag231
ag39
ag231
ag39
ag231
ag39
ag231
ag39
ag231
ag39
ag231
ag39
ag231
ag39
ag231
ag39
ag231
ag39
ag231
ag39
ag231
ag39
ag231
ag39
ag231
ag39
ag231
ag39
ag231
ag39
ag231
ag231
ag231
ag231
ag231
ag39
ag166
ag39
ag102
ag39
ag102
ag231
ag102
ag39
ag102
ag231
ag39
ag231
ag102
ag231
ag39
ag39
ag39
ag39
ag39
ag231
ag39
ag39
ag39
ag39
ag39
ag231
ag39
ag231
ag39
ag231
ag39
ag39
ag39
ag231
ag39
ag231
ag39
ag231
ag39
ag39
ag39
ag231
ag39
ag231
ag39
ag231
ag39
ag231
ag39
ag231
ag39
ag231
ag39
ag231
ag39
ag231
ag39
ag231
ag39
ag231
ag39
ag231
ag39
ag39
aa(lp268
g37
ag39
ag102
ag39
ag102
ag39
ag102
ag39
ag102
ag39
ag102
ag39
ag102
ag231
ag39
ag231
ag102
ag231
ag102
ag231
ag39
ag231
ag39
ag231
ag39
ag231
ag39
ag231
ag39
ag231
ag39
ag231
ag39
ag231
ag39
ag231
ag39
ag231
ag39
ag231
ag39
ag231
ag39
ag231
ag39
ag231
ag39
ag231
ag39
ag231
ag39
ag231
ag39
ag231
ag39
ag231
ag39
ag231
ag39
ag231
ag39
ag231
ag39
ag231
ag39
ag166
ag39
ag102
ag231
ag102
ag39
ag102
ag39
ag102
ag39
ag102
ag231
ag102
ag39
ag102
ag231
ag102
ag39
ag39
ag231
ag102
ag231
ag39
ag231
ag39
ag231
ag39
ag231
ag39
ag231
ag39
ag39
ag39
ag231
ag39
ag231
ag39
ag231
ag39
ag231
ag39
ag231
ag39
ag231
ag39
ag231
ag39
ag231
ag39
ag231
ag39
ag231
ag39
ag231
ag39
ag231
ag39
ag231
ag39
ag231
ag39
ag231
ag39
ag39
ag102
ag231
ag102
ag231
ag102
ag231
ag102
ag39
ag102
ag39
ag102
ag39
ag102
ag231
ag102
ag231
ag39
ag231
ag39
ag231
ag39
ag231
ag39
ag39
ag39
ag231
ag39
ag231
ag39
ag231
ag39
ag231
ag39
ag231
ag39
ag231
ag39
ag231
ag39
ag231
ag39
ag231
ag39
ag231
ag39
ag231
ag39
ag231
ag39
ag231
ag39
ag231
ag39
ag231
ag39
ag231
ag39
ag231
ag39
ag231
ag39
ag231
ag39
ag166
ag39
ag102
ag39
ag102
ag231
ag102
ag231
ag102
ag231
ag102
ag39
ag102
ag231
ag39
ag39
ag102
ag231
ag39
ag231
ag39
ag231
ag39
ag231
ag39
ag231
ag39
ag231
ag39
ag231
ag39
ag231
ag39
ag231
ag39
ag231
ag39
ag231
ag39
ag231
ag39
ag231
ag39
ag231
ag39
ag231
ag39
ag231
ag39
ag231
ag39
ag231
ag39
ag231
ag39
ag231
ag39
ag231
ag39
ag231
ag231
ag231
ag39
ag231
aa(lp269
g166
ag39
ag102
ag39
ag102
ag39
ag102
ag39
ag102
ag39
ag102
ag39
ag39
ag39
ag39
ag231
ag102
ag231
ag39
ag231
ag39
ag231
ag39
ag39
ag102
ag231
ag39
ag231
ag39
ag231
ag39
ag231
ag39
ag231
ag39
ag231
ag39
ag231
ag39
ag231
ag39
ag231
ag231
ag231
ag39
ag231
ag39
ag231
ag37
ag231
ag39
ag231
ag39
ag231
ag39
ag231
ag39
ag231
ag39
ag231
ag39
ag231
ag39
ag231
ag39
ag102
ag231
ag102
ag231
ag102
ag39
ag102
ag39
ag102
ag231
ag102
ag231
ag39
ag39
ag39
ag39
ag39
ag39
ag39
ag231
ag39
ag231
ag39
ag39
ag39
ag231
ag39
ag231
ag39
ag231
ag39
ag102
ag39
ag231
ag39
ag231
ag39
ag231
ag39
ag231
ag39
ag231
ag39
ag231
ag39
ag231
ag39
ag231
ag39
ag231
ag39
ag231
ag39
ag231
ag39
ag231
ag231
ag231
ag39
ag231
ag39
ag231
ag231
ag39
ag102
ag39
ag102
ag39
ag102
ag39
ag102
ag39
ag102
ag39
ag39
ag231
ag102
ag39
ag39
ag39
ag39
ag231
ag39
ag231
ag39
ag231
ag39
ag39
ag39
ag231
ag39
ag231
ag39
ag231
ag39
ag102
ag39
ag231
ag39
ag231
ag39
ag231
ag39
ag231
ag39
ag231
ag39
ag231
ag39
ag231
ag39
ag39
ag39
ag231
ag231
ag231
ag39
ag231
ag39
ag231
ag39
ag231
ag39
ag231
ag39
ag231
ag39
ag166
ag231
ag102
ag39
ag102
ag39
ag102
ag39
ag102
ag231
ag39
ag231
ag102
ag231
ag102
ag231
ag39
ag39
ag102
ag39
ag39
ag231
ag102
ag231
ag39
ag231
ag39
ag231
ag39
ag231
ag39
ag231
ag39
ag231
ag39
ag39
ag39
ag231
ag39
ag231
ag39
ag231
ag39
ag231
ag39
ag231
ag39
ag231
ag39
ag231
ag39
ag231
ag39
ag231
ag39
ag231
ag231
ag231
ag39
ag231
ag39
ag231
ag39
ag231
aa(lp270
g166
ag231
ag102
ag231
ag102
ag39
ag102
ag39
ag102
ag231
ag102
ag39
ag39
ag39
ag39
ag231
ag102
ag39
ag102
ag39
ag39
ag231
ag39
ag231
ag39
ag231
ag39
ag231
ag39
ag231
ag39
ag231
ag39
ag231
ag39
ag231
ag39
ag231
ag39
ag231
ag39
ag231
ag39
ag231
ag39
ag231
ag39
ag231
ag39
ag231
ag39
ag39
ag39
ag231
ag39
ag231
ag39
ag231
ag39
ag39
ag39
ag231
ag39
ag231
ag39
ag102
ag39
ag102
ag231
ag102
ag39
ag102
ag39
ag102
ag39
ag39
ag39
ag102
ag39
ag39
ag231
ag39
ag39
ag39
ag231
ag39
ag231
ag39
ag231
ag39
ag231
ag39
ag231
ag39
ag231
ag39
ag231
ag39
ag231
ag39
ag231
ag39
ag231
ag39
ag231
ag39
ag231
ag39
ag231
ag39
ag231
ag39
ag231
ag37
ag231
ag39
ag231
ag39
ag231
ag231
ag231
ag39
ag231
ag39
ag231
ag39
ag231
ag39
ag39
ag102
ag231
ag102
ag39
ag102
ag231
ag102
ag39
ag102
ag231
ag102
ag231
ag39
ag231
ag39
ag231
ag39
ag39
ag39
ag231
ag39
ag231
ag39
ag231
ag39
ag39
ag39
ag231
ag39
ag231
ag39
ag231
ag39
ag231
ag39
ag231
ag39
ag231
ag39
ag231
ag102
ag231
ag39
ag231
ag39
ag231
ag39
ag231
ag39
ag231
ag39
ag231
ag39
ag231
ag39
ag231
ag39
ag231
ag39
ag231
ag39
ag231
ag39
ag102
ag39
ag102
ag39
ag102
ag39
ag102
ag39
ag39
ag39
ag102
ag231
ag39
ag231
ag39
ag231
ag102
ag39
ag102
ag231
ag102
ag231
ag39
ag231
ag102
ag231
ag39
ag231
ag39
ag231
ag39
ag231
ag39
ag39
ag39
ag166
ag39
ag231
ag39
ag231
ag39
ag231
ag39
ag39
ag39
ag231
ag39
ag231
ag39
ag231
ag231
ag231
ag39
ag231
ag39
ag231
ag39
ag231
ag39
ag231
ag39
ag231
ag39
ag231
aa(lp271
g166
ag39
ag102
ag231
ag102
ag39
ag102
ag39
ag102
ag39
ag102
ag231
ag39
ag39
ag102
ag39
ag102
ag39
ag39
ag231
ag39
ag39
ag39
ag231
ag39
ag39
ag39
ag231
ag39
ag231
ag39
ag231
ag39
ag231
ag39
ag231
ag39
ag231
ag39
ag231
ag39
ag231
ag39
ag231
ag39
ag231
ag39
ag231
ag39
ag231
ag39
ag231
ag39
ag231
ag39
ag231
ag39
ag231
ag39
ag231
ag39
ag231
ag39
ag231
ag39
ag102
ag39
ag102
ag39
ag102
ag39
ag102
ag231
ag39
ag39
ag39
ag39
ag39
ag39
ag39
ag39
ag39
ag39
ag39
ag231
ag102
ag231
ag39
ag39
ag39
ag231
ag39
ag231
ag39
ag231
ag39
ag231
ag39
ag102
ag39
ag231
ag39
ag231
ag39
ag231
ag39
ag231
ag39
ag231
ag39
ag231
ag39
ag231
ag39
ag231
ag39
ag231
ag39
ag231
ag39
ag231
ag39
ag231
ag39
ag231
ag39
ag231
ag39
ag231
ag102
ag231
ag102
ag39
ag102
ag39
ag102
ag39
ag102
ag39
ag102
ag231
ag39
ag39
ag39
ag39
ag39
ag231
ag39
ag231
ag39
ag231
ag39
ag231
ag39
ag39
ag39
ag231
ag39
ag231
ag39
ag231
ag39
ag102
ag39
ag231
ag39
ag231
ag39
ag231
ag39
ag231
ag39
ag231
ag39
ag231
ag39
ag231
ag37
ag231
ag39
ag231
ag39
ag231
ag39
ag231
ag39
ag231
ag39
ag231
ag39
ag231
ag39
ag166
ag39
ag102
ag39
ag102
ag39
ag102
ag39
ag102
ag39
ag102
ag39
ag39
ag39
ag39
ag231
ag39
ag231
ag39
ag231
ag39
ag231
ag39
ag231
ag39
ag231
ag39
ag231
ag39
ag231
ag39
ag231
ag39
ag231
ag39
ag231
ag39
ag231
ag39
ag231
ag39
ag231
ag39
ag231
ag39
ag231
ag39
ag231
ag39
ag231
ag39
ag39
ag39
ag231
ag39
ag231
ag39
ag231
ag39
ag231
ag39
ag231
ag39
ag231
aa(lp272
g166
ag39
ag102
ag39
ag102
ag39
ag102
ag39
ag102
ag39
ag102
ag39
ag102
ag231
ag102
ag39
ag102
ag231
ag39
ag231
ag39
ag39
ag39
ag39
ag39
ag39
ag39
ag39
ag39
ag231
ag39
ag39
ag39
ag39
ag39
ag231
ag39
ag231
ag39
ag231
ag39
ag231
ag39
ag231
ag39
ag231
ag39
ag231
ag39
ag39
ag39
ag231
ag39
ag231
ag39
ag231
ag39
ag231
ag39
ag231
ag39
ag231
ag39
ag231
ag39
ag166
ag39
ag102
ag39
ag102
ag39
ag102
ag39
ag102
ag39
ag102
ag39
ag102
ag39
ag102
ag39
ag39
ag231
ag39
ag231
ag39
ag39
ag39
ag231
ag39
ag231
ag39
ag231
ag39
ag231
ag39
ag231
ag39
ag231
ag39
ag231
ag39
ag231
ag39
ag231
ag39
ag231
ag39
ag231
ag39
ag231
ag39
ag231
ag39
ag231
ag39
ag231
ag39
ag231
ag39
ag231
ag39
ag231
ag39
ag231
ag39
ag231
ag39
ag39
ag102
ag39
ag102
ag39
ag102
ag39
ag102
ag39
ag102
ag39
ag102
ag39
ag102
ag39
ag102
ag231
ag102
ag231
ag39
ag231
ag39
ag39
ag39
ag231
ag39
ag231
ag39
ag231
ag39
ag231
ag39
ag39
ag39
ag231
ag39
ag231
ag39
ag231
ag39
ag231
ag39
ag231
ag39
ag231
ag39
ag231
ag39
ag231
ag39
ag231
ag39
ag231
ag39
ag231
ag39
ag231
ag39
ag231
ag39
ag231
ag39
ag231
ag39
ag166
ag39
ag102
ag39
ag102
ag39
ag102
ag39
ag102
ag39
ag102
ag39
ag102
ag231
ag102
ag39
ag102
ag39
ag39
ag39
ag39
ag231
ag39
ag231
ag39
ag231
ag39
ag231
ag39
ag231
ag39
ag39
ag39
ag231
ag39
ag39
ag39
ag231
ag39
ag231
ag39
ag231
ag39
ag39
ag39
ag231
ag39
ag231
ag39
ag231
ag39
ag231
ag39
ag231
ag39
ag231
ag39
ag231
ag39
ag231
ag39
ag231
ag39
ag231
aa(lp273
g166
ag39
ag102
ag39
ag102
ag39
ag102
ag231
ag102
ag39
ag102
ag39
ag102
ag231
ag102
ag39
ag102
ag231
ag39
ag231
ag39
ag231
ag39
ag231
ag39
ag39
ag39
ag231
ag39
ag39
ag39
ag231
ag39
ag166
ag39
ag231
ag39
ag231
ag39
ag231
ag39
ag39
ag39
ag231
ag39
ag231
ag39
ag231
ag39
ag39
ag39
ag39
ag39
ag231
ag39
ag231
ag39
ag231
ag39
ag231
ag39
ag231
ag39
ag231
ag39
ag102
ag39
ag102
ag39
ag102
ag39
ag102
ag39
ag102
ag39
ag102
ag39
ag39
ag231
ag39
ag231
ag39
ag231
ag39
ag231
ag39
ag231
ag39
ag231
ag39
ag231
ag39
ag231
ag39
ag231
ag39
ag231
ag39
ag231
ag39
ag231
ag39
ag231
ag39
ag231
ag39
ag231
ag39
ag231
ag39
ag231
ag39
ag231
ag39
ag231
ag39
ag231
ag39
ag231
ag39
ag231
ag39
ag231
ag39
ag231
ag39
ag231
ag39
ag39
ag102
ag39
ag102
ag39
ag102
ag39
ag102
ag39
ag102
ag231
ag102
ag231
ag102
ag39
ag102
ag231
ag39
ag39
ag39
ag39
ag39
ag231
ag39
ag39
ag39
ag231
ag39
ag231
ag39
ag231
ag39
ag39
ag39
ag231
ag39
ag231
ag39
ag231
ag39
ag231
ag39
ag231
ag39
ag231
ag39
ag231
ag39
ag231
ag39
ag231
ag39
ag231
ag39
ag231
ag39
ag231
ag39
ag231
ag39
ag231
ag39
ag231
ag39
ag166
ag39
ag102
ag39
ag102
ag231
ag102
ag39
ag102
ag39
ag102
ag231
ag102
ag231
ag39
ag231
ag39
ag39
ag39
ag231
ag102
ag39
ag39
ag39
ag39
ag39
ag39
ag231
ag39
ag231
ag39
ag231
ag39
ag39
ag39
ag231
ag39
ag231
ag39
ag231
ag39
ag231
ag39
ag231
ag39
ag231
ag39
ag231
ag229
ag231
ag39
ag231
ag39
ag231
ag39
ag231
ag39
ag231
ag39
ag231
ag39
ag231
ag39
ag231
aa(lp274
g166
ag39
ag102
ag39
ag102
ag39
ag102
ag231
ag102
ag231
ag102
ag231
ag102
ag39
ag39
ag39
ag102
ag39
ag102
ag231
ag39
ag231
ag39
ag231
ag102
ag231
ag39
ag231
ag39
ag231
ag39
ag231
ag39
ag231
ag39
ag231
ag39
ag231
ag39
ag231
ag39
ag231
ag39
ag231
ag39
ag231
ag39
ag231
ag229
ag231
ag39
ag231
ag39
ag231
ag39
ag231
ag39
ag231
ag39
ag231
ag39
ag231
ag39
ag231
ag39
ag102
ag39
ag102
ag39
ag102
ag231
ag102
ag39
ag102
ag39
ag39
ag39
ag102
ag231
ag39
ag39
ag39
ag39
ag39
ag231
ag39
ag39
ag39
ag39
ag39
ag231
ag39
ag231
ag39
ag231
ag39
ag166
ag39
ag231
ag39
ag231
ag39
ag231
ag39
ag39
ag39
ag231
ag39
ag231
ag39
ag231
ag39
ag231
ag39
ag231
ag39
ag231
ag39
ag231
ag39
ag231
ag39
ag231
ag39
ag231
ag39
ag231
ag39
ag39
ag102
ag39
ag102
ag39
ag102
ag39
ag102
ag39
ag102
ag39
ag102
ag39
ag102
ag39
ag39
ag39
ag39
ag39
ag39
ag231
ag39
ag231
ag39
ag39
ag39
ag231
ag39
ag231
ag39
ag231
ag39
ag102
ag39
ag231
ag39
ag231
ag39
ag231
ag39
ag231
ag39
ag231
ag39
ag231
ag39
ag231
ag39
ag39
ag39
ag231
ag39
ag231
ag39
ag231
ag39
ag231
ag39
ag231
ag39
ag231
ag39
ag231
ag39
ag166
ag39
ag102
ag231
ag102
ag39
ag102
ag39
ag102
ag231
ag102
ag231
ag102
ag231
ag39
ag39
ag39
ag39
ag39
ag231
ag39
ag39
ag39
ag231
ag39
ag231
ag39
ag231
ag39
ag231
ag39
ag231
ag39
ag39
ag39
ag231
ag39
ag231
ag39
ag231
ag39
ag231
ag39
ag231
ag39
ag231
ag39
ag231
ag39
ag231
ag39
ag231
ag39
ag231
ag39
ag231
ag39
ag231
ag39
ag231
ag39
ag231
ag39
ag231
aassI16
(dp275
I1000
(F5066715.0
I5203256
F120009.0
tp276
sI100
(F5086201.0
I5203256
F120009.0
tp277
sg5
(lp278
I23
aI53
aI31
aI17
aI13
aI32
aI40
aI38
aI38
aI116
aI79
aI46
aI31
aI26
aI66
aI1
asI20
(F5185658.0
I5203256
F120009.0
tp279
sg8
(lp280
(lp281
g11
ag12
ag13
ag14
ag15
ag16
ag17
ag18
ag19
ag20
ag21
ag22
ag23
ag24
ag25
ag26
ag27
ag28
ag29
ag30
ag31
ag32
ag33
ag34
ag35
ag36
ag37
ag38
ag39
ag40
ag41
ag42
ag43
ag44
ag45
ag46
ag47
ag48
ag49
ag50
ag51
ag52
ag53
ag54
ag55
ag56
ag57
ag58
ag59
ag60
ag61
ag62
ag63
ag64
ag65
ag66
ag67
ag68
ag69
ag70
ag71
ag72
ag73
ag74
ag75
ag76
ag77
ag78
ag79
ag80
ag81
ag82
ag83
ag84
ag85
ag86
ag87
ag88
ag89
ag90
ag91
ag92
ag93
ag94
ag95
ag96
ag97
ag98
ag99
ag100
ag101
ag102
ag103
ag104
ag105
ag106
ag107
ag108
ag109
ag110
ag111
ag112
ag113
ag114
ag115
ag116
ag117
ag118
ag119
ag120
ag121
ag122
ag123
ag124
ag125
ag126
ag127
ag128
ag129
ag130
ag131
ag132
ag133
ag134
ag135
ag136
ag137
ag138
ag139
ag140
ag141
ag142
ag143
ag144
ag145
ag146
ag147
ag148
ag149
ag150
ag151
ag152
ag153
ag154
ag155
ag156
ag157
ag158
ag159
ag160
ag161
ag162
ag163
ag164
ag165
ag166
ag167
ag168
ag169
ag170
ag171
ag172
ag173
ag174
ag175
ag176
ag177
ag178
ag179
ag180
ag181
ag182
ag183
ag184
ag185
ag186
ag187
ag188
ag189
ag190
ag191
ag192
ag193
ag194
ag195
ag196
ag197
ag198
ag199
ag200
ag201
ag202
ag203
ag204
ag205
ag206
ag207
ag208
ag209
ag210
ag211
ag212
ag213
ag214
ag215
ag216
ag217
ag218
ag219
ag220
ag221
ag222
ag223
ag224
ag225
ag226
ag227
ag228
ag229
ag230
ag231
ag232
ag233
ag234
ag235
ag236
ag237
ag238
ag239
ag240
ag241
ag242
ag243
ag244
ag245
ag246
ag247
ag248
ag249
ag250
ag251
ag252
ag253
ag254
ag255
ag256
ag257
ag258
ag259
ag260
ag261
ag262
ag263
ag264
ag265
ag266
aa(lp282
g166
ag39
ag102
ag231
ag102
ag231
ag102
ag39
ag102
ag39
ag102
ag231
ag102
ag231
ag102
ag39
ag39
ag231
ag39
ag231
ag39
ag231
ag39
ag231
ag39
ag39
ag39
ag231
ag39
ag231
ag39
ag102
ag39
ag39
ag39
ag231
ag39
ag231
ag39
ag39
ag39
ag39
ag39
ag39
ag39
ag231
ag39
ag231
ag39
ag231
ag39
ag231
ag39
ag231
ag231
ag231
ag39
ag231
ag39
ag231
ag39
ag231
ag231
ag231
ag39
ag166
ag39
ag102
ag231
ag102
ag39
ag102
ag231
ag39
ag231
ag102
ag39
ag39
ag231
ag102
ag231
ag39
ag231
ag39
ag231
ag39
ag231
ag102
ag39
ag39
ag231
ag39
ag39
ag39
ag231
ag39
ag231
ag39
ag231
ag39
ag231
ag39
ag231
ag39
ag231
ag39
ag231
ag39
ag231
ag39
ag231
ag37
ag231
ag39
ag231
ag39
ag231
ag39
ag231
ag39
ag231
ag231
ag231
ag39
ag231
ag39
ag231
ag39
ag39
ag102
ag231
ag102
ag231
ag102
ag39
ag102
ag231
ag102
ag39
ag102
ag39
ag102
ag39
ag39
ag39
ag39
ag231
ag39
ag231
ag39
ag231
ag39
ag39
ag39
ag231
ag39
ag231
ag39
ag231
ag39
ag231
ag39
ag231
ag39
ag231
ag39
ag231
ag39
ag231
ag39
ag231
ag39
ag231
ag39
ag231
ag39
ag231
ag39
ag231
ag39
ag231
ag39
ag231
ag39
ag231
ag39
ag231
ag231
ag231
ag231
ag231
ag39
ag166
ag39
ag102
ag39
ag102
ag231
ag102
ag39
ag102
ag231
ag39
ag231
ag102
ag231
ag39
ag39
ag39
ag39
ag39
ag231
ag39
ag39
ag39
ag39
ag39
ag231
ag39
ag231
ag39
ag231
ag39
ag39
ag39
ag231
ag39
ag231
ag39
ag231
ag39
ag39
ag39
ag231
ag39
ag231
ag39
ag231
ag39
ag231
ag39
ag231
ag39
ag231
ag39
ag231
ag39
ag231
ag39
ag231
ag39
ag231
ag39
ag231
ag39
ag39
aa(lp283
g229
ag231
ag102
ag39
ag102
ag39
ag102
ag231
ag102
ag39
ag102
ag39
ag102
ag231
ag102
ag39
ag102
ag231
ag39
ag231
ag102
ag39
ag39
ag231
ag102
ag231
ag39
ag39
ag39
ag231
ag39
ag231
ag39
ag231
ag39
ag231
ag39
ag39
ag39
ag231
ag39
ag231
ag39
ag231
ag39
ag231
ag39
ag231
ag39
ag231
ag39
ag231
ag39
ag231
ag39
ag231
ag39
ag231
ag39
ag231
ag39
ag231
ag231
ag231
ag231
ag166
ag231
ag102
ag39
ag102
ag231
ag102
ag231
ag102
ag231
ag102
ag39
ag102
ag39
ag102
ag39
ag39
ag231
ag39
ag231
ag39
ag39
ag39
ag231
ag39
ag231
ag39
ag231
ag39
ag231
ag39
ag231
ag39
ag231
ag39
ag231
ag39
ag231
ag39
ag231
ag39
ag231
ag39
ag231
ag39
ag231
ag39
ag231
ag39
ag231
ag39
ag231
ag39
ag231
ag39
ag231
ag39
ag231
ag39
ag231
ag39
ag231
ag39
ag231
ag102
ag39
ag102
ag231
ag102
ag39
ag102
ag231
ag102
ag39
ag102
ag231
ag102
ag39
ag102
ag231
ag102
ag231
ag39
ag231
ag39
ag39
ag39
ag231
ag39
ag231
ag39
ag231
ag39
ag39
ag39
ag231
ag39
ag231
ag39
ag231
ag39
ag231
ag39
ag231
ag102
ag231
ag39
ag231
ag39
ag231
ag39
ag231
ag39
ag231
ag39
ag231
ag39
ag231
ag39
ag231
ag39
ag231
ag39
ag231
ag39
ag231
ag39
ag166
ag39
ag102
ag39
ag102
ag39
ag102
ag39
ag102
ag39
ag102
ag39
ag102
ag39
ag102
ag231
ag102
ag39
ag39
ag231
ag102
ag231
ag102
ag231
ag102
ag231
ag39
ag231
ag39
ag231
ag39
ag39
ag39
ag231
ag39
ag231
ag39
ag231
ag39
ag231
ag39
ag231
ag39
ag231
ag39
ag231
ag39
ag231
ag39
ag231
ag39
ag231
ag39
ag231
ag39
ag231
ag39
ag231
ag231
ag231
ag39
ag231
ag39
ag231
aa(lp284
g166
ag39
ag102
ag39
ag102
ag39
ag102
ag39
ag102
ag39
ag102
ag39
ag39
ag231
ag39
ag231
ag102
ag231
ag102
ag231
ag39
ag231
ag39
ag39
ag102
ag231
ag39
ag231
ag39
ag231
ag39
ag231
ag39
ag231
ag39
ag231
ag39
ag231
ag39
ag231
ag39
ag231
ag231
ag231
ag39
ag231
ag39
ag231
ag37
ag231
ag39
ag231
ag39
ag231
ag39
ag231
ag39
ag231
ag39
ag231
ag39
ag231
ag39
ag231
ag39
ag102
ag39
ag102
ag231
ag102
ag39
ag102
ag39
ag102
ag231
ag102
ag231
ag39
ag39
ag39
ag39
ag39
ag231
ag39
ag231
ag39
ag231
ag39
ag39
ag39
ag231
ag39
ag231
ag39
ag231
ag39
ag102
ag39
ag231
ag39
ag231
ag39
ag231
ag39
ag231
ag39
ag231
ag39
ag231
ag39
ag231
ag39
ag231
ag39
ag231
ag39
ag231
ag39
ag231
ag39
ag231
ag231
ag231
ag39
ag231
ag39
ag231
ag231
ag39
ag102
ag39
ag102
ag39
ag102
ag39
ag102
ag39
ag102
ag39
ag39
ag231
ag102
ag39
ag39
ag39
ag39
ag231
ag39
ag231
ag39
ag231
ag39
ag39
ag39
ag231
ag39
ag231
ag39
ag231
ag39
ag102
ag39
ag231
ag39
ag231
ag39
ag231
ag39
ag231
ag39
ag231
ag39
ag231
ag39
ag231
ag39
ag39
ag39
ag231
ag231
ag39
ag39
ag231
ag39
ag231
ag39
ag231
ag39
ag231
ag39
ag231
ag39
ag166
ag231
ag102
ag231
ag102
ag39
ag102
ag39
ag102
ag231
ag39
ag231
ag102
ag231
ag102
ag231
ag39
ag231
ag102
ag39
ag39
ag231
ag102
ag231
ag39
ag231
ag39
ag231
ag39
ag231
ag39
ag231
ag39
ag231
ag39
ag39
ag39
ag231
ag39
ag231
ag39
ag231
ag39
ag231
ag39
ag231
ag39
ag231
ag39
ag231
ag39
ag231
ag39
ag231
ag39
ag231
ag231
ag231
ag39
ag231
ag39
ag231
ag39
ag231
aa(lp285
g102
ag39
ag102
ag39
ag102
ag231
ag102
ag231
ag102
ag39
ag102
ag231
ag102
ag231
ag102
ag231
ag102
ag39
ag39
ag231
ag39
ag231
ag39
ag231
ag39
ag39
ag39
ag39
ag39
ag231
ag39
ag231
ag39
ag102
ag39
ag231
ag39
ag39
ag39
ag231
ag39
ag39
ag39
ag231
ag39
ag231
ag39
ag231
ag39
ag231
ag39
ag231
ag39
ag231
ag39
ag231
ag39
ag231
ag231
ag231
ag39
ag231
ag39
ag231
ag231
ag102
ag39
ag102
ag39
ag102
ag231
ag102
ag39
ag102
ag231
ag39
ag231
ag102
ag231
ag39
ag231
ag39
ag231
ag39
ag231
ag39
ag39
ag39
ag231
ag39
ag231
ag39
ag231
ag39
ag231
ag39
ag231
ag39
ag231
ag39
ag231
ag39
ag231
ag39
ag231
ag39
ag231
ag39
ag231
ag39
ag231
ag39
ag231
ag39
ag231
ag39
ag231
ag39
ag39
ag39
ag231
ag39
ag231
ag39
ag231
ag39
ag231
ag39
ag231
ag102
ag39
ag102
ag39
ag102
ag39
ag102
ag39
ag102
ag231
ag102
ag231
ag102
ag39
ag39
ag231
ag39
ag39
ag39
ag231
ag39
ag231
ag39
ag231
ag39
ag39
ag39
ag231
ag39
ag39
ag39
ag39
ag39
ag39
ag39
ag231
ag39
ag231
ag39
ag231
ag39
ag231
ag39
ag39
ag39
ag231
ag39
ag231
ag39
ag231
ag39
ag231
ag39
ag231
ag39
ag231
ag39
ag231
ag39
ag231
ag39
ag231
ag39
ag166
ag39
ag102
ag39
ag102
ag231
ag102
ag39
ag102
ag39
ag102
ag231
ag102
ag231
ag39
ag231
ag39
ag39
ag39
ag39
ag39
ag231
ag39
ag231
ag39
ag39
ag39
ag231
ag39
ag231
ag39
ag231
ag39
ag39
ag39
ag231
ag39
ag231
ag39
ag39
ag102
ag231
ag39
ag231
ag39
ag231
ag39
ag231
ag37
ag231
ag39
ag231
ag39
ag231
ag39
ag231
ag39
ag231
ag231
ag231
ag39
ag231
ag39
ag231
aa(lp286
g166
ag39
ag102
ag231
ag102
ag39
ag102
ag231
ag102
ag39
ag39
ag231
ag39
ag39
ag39
ag231
ag102
ag39
ag102
ag231
ag39
ag231
ag39
ag231
ag39
ag231
ag39
ag231
ag39
ag39
ag102
ag231
ag39
ag231
ag39
ag231
ag39
ag231
ag39
ag231
ag39
ag231
ag39
ag231
ag39
ag231
ag39
ag231
ag39
ag231
ag39
ag231
ag39
ag231
ag39
ag231
ag39
ag231
ag39
ag39
ag39
ag231
ag39
ag231
ag39
ag102
ag39
ag102
ag231
ag102
ag39
ag102
ag39
ag102
ag231
ag39
ag231
ag39
ag39
ag102
ag39
ag39
ag39
ag39
ag231
ag39
ag231
ag39
ag39
ag39
ag231
ag39
ag39
ag39
ag39
ag39
ag231
ag39
ag231
ag39
ag231
ag39
ag39
ag39
ag231
ag39
ag231
ag39
ag231
ag39
ag231
ag39
ag231
ag37
ag39
ag39
ag231
ag39
ag231
ag231
ag231
ag39
ag231
ag231
ag231
ag231
aS'10'
p287
ag39
ag39
ag102
ag231
ag102
ag39
ag102
ag39
ag102
ag39
ag102
ag231
ag39
ag231
ag102
ag39
ag102
ag39
ag39
ag39
ag39
ag231
ag102
ag231
ag39
ag231
ag39
ag39
ag39
ag231
ag39
ag39
ag39
ag39
ag39
ag39
ag39
ag39
ag39
ag231
ag39
ag231
ag39
ag231
ag231
ag231
ag39
ag231
ag39
ag231
ag39
ag231
ag39
ag231
ag39
ag231
ag39
ag231
ag39
ag231
ag39
ag231
ag231
ag231
ag231
ag102
ag231
ag102
ag231
ag102
ag39
ag102
ag231
ag39
ag39
ag39
ag231
ag39
ag231
ag39
ag231
ag102
ag231
ag102
ag231
ag102
ag39
ag39
ag231
ag102
ag231
ag39
ag231
ag102
ag231
ag39
ag231
ag39
ag39
ag39
ag102
ag39
ag39
ag39
ag231
ag39
ag231
ag231
ag39
ag39
ag231
ag39
ag231
ag39
ag231
ag39
ag231
ag39
ag231
ag39
aS'10'
p288
ag39
ag231
ag39
ag39
ag231
ag231
ag39
ag231
aa(lp289
g166
ag39
ag102
ag231
ag102
ag231
ag102
ag231
ag102
ag39
ag102
ag231
ag102
ag39
ag39
ag39
ag102
ag39
ag39
ag231
ag39
ag39
ag39
ag231
ag39
ag231
ag39
ag231
ag39
ag231
ag39
ag231
ag39
ag231
ag39
ag231
ag39
ag231
ag39
ag231
ag39
ag231
ag39
ag231
ag39
ag231
ag231
ag231
ag39
ag231
ag39
ag231
ag39
ag231
ag39
ag231
ag231
ag231
ag39
ag231
ag39
ag231
ag39
ag231
ag39
ag102
ag39
ag102
ag39
ag102
ag231
ag102
ag231
ag39
ag39
ag39
ag39
ag39
ag39
ag39
ag39
ag39
ag39
ag39
ag231
ag102
ag231
ag39
ag231
ag39
ag231
ag39
ag231
ag39
ag39
ag39
ag231
ag39
ag39
ag39
ag231
ag39
ag231
ag39
ag231
ag39
ag231
ag39
ag231
ag39
ag231
ag39
ag231
ag39
ag231
ag39
ag231
ag39
ag231
ag39
ag231
ag39
ag231
ag39
ag231
ag39
ag231
ag39
ag39
ag102
ag231
ag102
ag39
ag102
ag39
ag102
ag39
ag102
ag39
ag102
ag39
ag39
ag39
ag102
ag39
ag102
ag231
ag102
ag231
ag39
ag231
ag39
ag231
ag39
ag39
ag39
ag231
ag39
ag231
ag39
ag231
ag39
ag102
ag39
ag231
ag39
ag231
ag39
ag231
ag39
ag231
ag39
ag231
ag39
ag231
ag39
ag231
ag37
ag231
ag39
ag231
ag39
ag231
ag39
ag231
ag39
ag231
ag39
ag231
ag39
ag231
ag39
ag166
ag39
ag102
ag39
ag102
ag231
ag102
ag39
ag102
ag39
ag102
ag231
ag39
ag231
ag39
ag231
ag39
ag231
ag39
ag231
ag39
ag231
ag39
ag39
ag39
ag231
ag39
ag39
ag39
ag231
ag39
ag231
ag39
ag231
ag39
ag39
ag39
ag231
ag39
ag231
ag39
ag39
ag39
ag231
ag39
ag231
ag39
ag231
ag39
ag231
ag39
ag39
ag39
ag231
ag39
ag231
ag39
ag231
ag39
ag231
ag39
ag231
ag231
ag231
aa(lp290
g166
ag39
ag102
ag39
ag102
ag39
ag102
ag39
ag102
ag39
ag102
ag231
ag39
ag39
ag102
ag39
ag102
ag231
ag39
ag39
ag39
ag39
ag39
ag231
ag39
ag39
ag39
ag231
ag39
ag231
ag39
ag231
ag39
ag231
ag39
ag231
ag39
ag231
ag39
ag231
ag39
ag231
ag39
ag231
ag39
ag231
ag39
ag231
ag39
ag231
ag39
ag231
ag39
ag231
ag39
ag231
ag39
ag231
ag39
ag231
ag39
ag231
ag39
ag231
ag39
ag102
ag39
ag102
ag39
ag102
ag39
ag102
ag231
ag102
ag39
ag102
ag39
ag102
ag39
ag39
ag231
ag102
ag39
ag39
ag231
ag102
ag39
ag39
ag39
ag39
ag39
ag39
ag231
ag39
ag231
ag39
ag231
ag39
ag102
ag39
ag39
ag39
ag231
ag39
ag231
ag39
ag231
ag39
ag231
ag39
ag231
ag39
ag231
ag39
ag231
ag39
ag231
ag39
ag231
ag39
ag231
ag39
ag231
ag39
ag231
ag39
ag231
ag231
ag231
ag102
ag231
ag102
ag39
ag102
ag39
ag102
ag39
ag102
ag39
ag102
ag231
ag102
ag39
ag39
ag231
ag39
ag39
ag39
ag231
ag102
ag231
ag39
ag231
ag39
ag39
ag39
ag231
ag39
ag39
ag39
ag231
ag39
ag166
ag39
ag39
ag39
ag231
ag39
ag39
ag39
ag231
ag39
ag231
ag39
ag231
ag39
ag231
ag229
ag231
ag39
ag231
ag39
ag231
ag39
ag231
ag39
ag231
ag39
ag231
ag39
ag231
ag39
ag166
ag231
ag102
ag231
ag102
ag231
ag102
ag39
ag102
ag231
ag102
ag39
ag39
ag39
ag39
ag231
ag39
ag231
ag39
ag231
ag39
ag231
ag39
ag231
ag39
ag231
ag39
ag231
ag39
ag231
ag39
ag231
ag39
ag231
ag39
ag231
ag39
ag231
ag39
ag231
ag39
ag231
ag39
ag231
ag39
ag231
ag39
ag231
ag39
ag231
ag39
ag39
ag39
ag231
ag39
ag231
ag231
ag231
ag39
ag231
ag39
ag231
ag39
ag231
aa(lp291
g37
ag39
ag166
ag231
ag102
ag39
ag102
ag39
ag102
ag39
ag102
ag39
ag102
ag231
ag102
ag39
ag102
ag231
ag39
ag231
ag39
ag39
ag39
ag231
ag39
ag231
ag39
ag231
ag39
ag231
ag39
ag231
ag39
ag231
ag39
ag231
ag39
ag231
ag39
ag231
ag39
ag231
ag39
ag231
ag39
ag231
ag39
ag231
ag39
ag231
ag39
ag231
ag39
ag231
ag39
ag231
ag231
ag231
ag39
ag231
ag39
ag231
ag39
ag231
ag39
ag166
ag39
ag102
ag231
ag102
ag39
ag102
ag231
ag102
ag39
ag102
ag231
ag102
ag231
ag102
ag231
ag102
ag231
ag39
ag231
ag39
ag231
ag39
ag231
ag39
ag39
ag39
ag231
ag39
ag231
ag39
ag39
ag39
ag231
ag39
ag231
ag39
ag231
ag39
ag231
ag39
ag231
ag39
ag231
ag39
ag231
ag39
ag231
ag39
ag231
ag231
ag231
ag231
ag231
ag39
ag231
ag39
ag231
ag39
ag231
ag39
ag231
ag39
ag39
ag166
ag231
ag102
ag231
ag102
ag39
ag102
ag231
ag102
ag39
ag102
ag39
ag102
ag231
ag39
ag231
ag39
ag231
ag39
ag231
ag39
ag231
ag39
ag39
ag39
ag231
ag39
ag231
ag39
ag231
ag39
ag231
ag39
ag231
ag39
ag231
ag39
ag231
ag39
ag231
ag39
ag231
ag39
ag231
ag39
ag231
ag39
ag231
ag39
ag231
ag39
ag231
ag39
ag231
ag39
ag231
ag231
ag231
ag39
ag231
ag39
ag231
ag231
ag166
ag231
ag102
ag39
ag102
ag231
ag102
ag231
ag102
ag39
ag102
ag39
ag102
ag39
ag102
ag39
ag102
ag231
ag39
ag231
ag39
ag231
ag39
ag231
ag39
ag231
ag39
ag231
ag39
ag231
ag39
ag231
ag39
ag231
ag39
ag231
ag39
ag231
ag39
ag231
ag39
ag231
ag39
ag231
ag39
ag231
ag39
ag231
ag39
ag231
ag39
ag231
ag39
ag231
ag39
ag231
ag39
ag231
ag39
ag231
ag231
ag231
ag231
ag231
aa(lp292
g166
ag39
ag102
ag39
ag102
ag39
ag102
ag39
ag102
ag39
ag39
ag39
ag39
ag39
ag102
ag231
ag102
ag231
ag39
ag231
ag39
ag231
ag39
ag231
ag102
ag231
ag39
ag231
ag39
ag39
ag39
ag231
ag39
ag39
ag39
ag231
ag39
ag231
ag39
ag231
ag39
ag231
ag39
ag231
ag39
ag231
ag39
ag231
ag39
ag39
ag39
ag231
ag39
ag231
ag39
ag231
ag39
ag231
ag39
ag231
ag39
ag231
ag39
ag231
ag39
ag166
ag39
ag102
ag39
ag102
ag39
ag102
ag39
ag102
ag39
ag39
ag39
ag102
ag39
ag102
ag231
ag102
ag39
ag39
ag231
ag39
ag231
ag39
ag231
ag39
ag231
ag39
ag231
ag39
ag231
ag39
ag231
ag39
ag231
ag39
ag231
ag39
ag39
ag39
ag231
ag39
ag231
ag39
ag231
ag39
ag231
ag39
ag231
ag39
ag231
ag39
ag231
ag39
ag231
ag39
ag231
ag39
ag231
ag231
ag231
ag39
ag231
ag39
ag39
ag102
ag39
ag102
ag39
ag102
ag39
ag102
ag231
ag102
ag231
ag102
ag231
ag102
ag39
ag102
ag231
ag39
ag39
ag39
ag231
ag39
ag39
ag39
ag231
ag39
ag231
ag39
ag231
ag39
ag231
ag39
ag39
ag39
ag231
ag39
ag231
ag39
ag231
ag39
ag231
ag39
ag231
ag39
ag231
ag39
ag231
ag39
ag231
ag39
ag231
ag39
ag231
ag231
ag231
ag39
ag231
ag39
ag231
ag39
ag231
ag39
ag231
ag39
ag166
ag39
ag102
ag39
ag102
ag231
ag102
ag39
ag102
ag39
ag102
ag39
ag39
ag231
ag39
ag39
ag102
ag39
ag39
ag231
ag102
ag39
ag39
ag231
ag39
ag39
ag39
ag231
ag39
ag39
ag39
ag231
ag39
ag102
ag39
ag231
ag39
ag231
ag39
ag231
ag39
ag231
ag39
ag231
ag39
ag231
ag39
ag231
ag229
ag231
ag39
ag231
ag39
ag231
ag39
ag231
ag39
ag231
ag39
ag231
ag231
ag231
ag39
ag231
aa(lp293
g166
ag39
ag102
ag231
ag102
ag39
ag102
ag231
ag102
ag39
ag102
ag39
ag102
ag231
ag102
ag39
ag102
ag39
ag102
ag231
ag39
ag39
ag39
ag231
ag39
ag39
ag39
ag39
ag39
ag231
ag39
ag39
ag39
ag231
ag39
ag231
ag39
ag231
ag39
ag231
ag39
ag231
ag39
ag231
ag39
ag231
ag39
ag231
ag39
ag39
ag39
ag231
ag39
ag231
ag39
ag231
ag39
ag231
ag39
ag231
ag39
ag231
ag39
ag231
ag39
ag166
ag39
ag102
ag39
ag102
ag39
ag102
ag39
ag102
ag39
ag102
ag39
ag102
ag39
ag102
ag39
ag39
ag231
ag39
ag231
ag39
ag39
ag39
ag39
ag39
ag231
ag39
ag231
ag39
ag231
ag39
ag39
ag39
ag231
ag39
ag231
ag39
ag39
ag39
ag231
ag39
ag231
ag39
ag231
ag39
ag231
ag39
ag231
ag39
ag231
ag39
ag231
ag39
ag231
ag39
ag231
ag39
ag231
ag39
ag231
ag39
ag231
ag39
ag39
ag102
ag39
ag102
ag39
ag102
ag39
ag102
ag39
ag102
ag39
ag102
ag39
ag102
ag39
ag102
ag39
ag39
ag231
ag39
ag231
ag39
ag231
ag102
ag231
ag39
ag231
ag39
ag39
ag39
ag231
ag39
ag39
ag39
ag39
ag39
ag231
ag39
ag231
ag39
ag231
ag39
ag231
ag39
ag231
ag39
ag231
ag39
ag231
ag39
ag231
ag39
ag231
ag39
ag231
ag39
ag231
ag39
ag231
ag39
ag231
ag39
ag231
ag39
ag166
ag39
ag102
ag231
ag102
ag39
ag102
ag39
ag102
ag39
ag102
ag39
ag102
ag39
ag39
ag39
ag102
ag39
ag39
ag39
ag39
ag231
ag39
ag231
ag39
ag231
ag39
ag231
ag39
ag231
ag39
ag231
ag39
ag231
ag39
ag231
ag39
ag231
ag39
ag231
ag39
ag231
ag39
ag39
ag39
ag231
ag39
ag231
ag39
ag231
ag39
ag231
ag39
ag231
ag39
ag231
ag39
ag231
ag39
ag231
ag39
ag231
ag39
ag231
aa(lp294
g166
ag39
ag102
ag39
ag102
ag39
ag102
ag231
ag102
ag231
ag102
ag231
ag102
ag39
ag39
ag39
ag102
ag39
ag39
ag231
ag39
ag231
ag39
ag231
ag102
ag231
ag39
ag231
ag39
ag231
ag39
ag231
ag39
ag231
ag39
ag231
ag39
ag231
ag39
ag231
ag39
ag231
ag39
ag231
ag39
ag231
ag39
ag231
ag229
ag231
ag39
ag231
ag39
ag231
ag39
ag231
ag39
ag231
ag39
ag231
ag39
ag231
ag39
ag231
ag39
ag102
ag39
ag102
ag39
ag102
ag231
ag102
ag39
ag102
ag39
ag39
ag39
ag102
ag231
ag39
ag39
ag39
ag39
ag39
ag231
ag39
ag39
ag39
ag39
ag39
ag231
ag39
ag231
ag39
ag231
ag39
ag166
ag39
ag231
ag39
ag39
ag39
ag231
ag39
ag39
ag39
ag231
ag39
ag231
ag39
ag231
ag39
ag231
ag39
ag231
ag39
ag231
ag39
ag231
ag39
ag231
ag39
ag231
ag39
ag231
ag39
ag231
ag39
ag39
ag102
ag39
ag102
ag39
ag102
ag39
ag102
ag39
ag102
ag39
ag102
ag39
ag102
ag39
ag39
ag39
ag39
ag39
ag39
ag231
ag39
ag231
ag39
ag39
ag39
ag231
ag39
ag231
ag39
ag39
ag39
ag102
ag39
ag231
ag39
ag231
ag39
ag231
ag39
ag231
ag39
ag231
ag39
ag231
ag39
ag231
ag39
ag39
ag39
ag231
ag39
ag231
ag39
ag231
ag39
ag231
ag39
ag231
ag39
ag231
ag39
ag231
ag39
ag166
ag231
ag102
ag39
ag102
ag39
ag102
ag39
ag102
ag231
ag102
ag39
ag102
ag231
ag39
ag39
ag39
ag39
ag39
ag231
ag39
ag39
ag39
ag231
ag39
ag231
ag39
ag231
ag39
ag231
ag39
ag231
ag39
ag231
ag39
ag231
ag39
ag231
ag39
ag231
ag39
ag231
ag39
ag231
ag39
ag231
ag39
ag231
ag39
ag231
ag39
ag231
ag39
ag231
ag39
ag231
ag39
ag231
ag39
ag231
ag39
ag231
ag39
ag231
aa(lp295
g37
ag231
ag102
ag39
ag102
ag39
ag102
ag39
ag102
ag39
ag102
ag231
ag39
ag231
ag102
ag231
ag39
ag231
ag39
ag39
ag39
ag231
ag39
ag39
ag39
ag39
ag39
ag231
ag39
ag39
ag39
ag39
ag39
ag231
ag39
ag231
ag39
ag231
ag39
ag231
ag39
ag231
ag39
ag231
ag39
ag231
ag39
ag39
ag39
ag231
ag39
ag231
ag39
ag231
ag39
ag231
ag39
ag231
ag39
ag231
ag39
ag231
ag39
ag231
ag39
ag166
ag39
ag102
ag39
ag102
ag231
ag102
ag231
ag102
ag39
ag102
ag231
ag102
ag39
ag39
ag39
ag102
ag39
ag102
ag231
ag39
ag231
ag39
ag39
ag39
ag231
ag39
ag231
ag39
ag231
ag39
ag39
ag39
ag231
ag39
ag231
ag39
ag231
ag39
ag231
ag39
ag39
ag39
ag231
ag39
ag231
ag39
ag231
ag39
ag231
ag39
ag231
ag39
ag231
ag39
ag231
ag39
ag231
ag39
ag231
ag39
ag231
ag39
ag39
ag102
ag39
ag102
ag231
ag102
ag231
ag102
ag231
ag102
ag231
ag102
ag39
ag102
ag39
ag39
ag39
ag39
ag39
ag39
ag231
ag39
ag231
ag39
ag39
ag39
ag39
ag39
ag231
ag39
ag231
ag39
ag231
ag39
ag231
ag39
ag231
ag39
ag231
ag39
ag231
ag39
ag231
ag39
ag231
ag39
ag231
ag39
ag231
ag39
ag231
ag39
ag231
ag39
ag231
ag39
ag231
ag39
ag231
ag39
ag231
ag39
ag231
ag39
ag166
ag39
ag102
ag39
ag102
ag231
ag102
ag231
ag102
ag39
ag102
ag231
ag102
ag231
ag39
ag231
ag39
ag231
ag39
ag231
ag39
ag231
ag39
ag39
ag39
ag231
ag39
ag231
ag39
ag231
ag39
ag231
ag39
ag231
ag39
ag231
ag39
ag39
ag39
ag231
ag39
ag231
ag39
ag231
ag39
ag231
ag39
ag231
ag39
ag231
ag39
ag231
ag39
ag231
ag39
ag231
ag39
ag231
ag39
ag231
ag231
ag231
ag39
ag231
aa(lp296
g166
ag231
ag102
ag39
ag102
ag231
ag102
ag231
ag102
ag39
ag102
ag231
ag102
ag231
ag102
ag39
ag102
ag231
ag39
ag39
ag39
ag39
ag39
ag39
ag39
ag39
ag39
ag231
ag39
ag39
ag39
ag231
ag39
ag229
ag39
ag231
ag39
ag39
ag39
ag231
ag39
ag39
ag39
ag231
ag39
ag231
ag39
ag231
ag39
ag231
ag39
ag39
ag39
ag231
ag39
ag231
ag39
ag231
ag39
ag231
ag39
ag231
ag39
ag231
ag39
ag102
ag39
ag102
ag39
ag102
ag39
ag102
ag231
ag102
ag39
ag102
ag39
ag39
ag231
ag39
ag39
ag39
ag231
ag39
ag231
ag39
ag231
ag39
ag231
ag39
ag231
ag39
ag231
ag39
ag231
ag39
ag231
ag39
ag231
ag39
ag231
ag39
ag231
ag39
ag231
ag39
ag39
ag39
ag231
ag39
ag39
ag39
ag39
ag39
ag231
ag39
ag231
ag39
ag231
ag231
ag231
ag39
ag231
ag231
ag231
ag39
ag231
ag39
ag39
ag102
ag39
ag102
ag231
ag102
ag39
ag102
ag39
ag39
ag231
ag102
ag231
ag102
ag39
ag102
ag231
ag39
ag39
ag102
ag39
ag39
ag231
ag39
ag39
ag39
ag231
ag39
ag231
ag39
ag231
ag39
ag231
ag39
ag39
ag39
ag231
ag39
ag231
ag39
ag231
ag39
ag39
ag39
ag231
ag39
ag231
ag39
ag231
ag39
ag231
ag39
ag231
ag39
ag231
ag39
ag231
ag39
ag231
ag39
ag231
ag39
ag231
ag39
ag102
ag39
ag102
ag231
ag102
ag39
ag102
ag39
ag102
ag39
ag39
ag231
ag102
ag231
ag39
ag231
ag39
ag39
ag39
ag231
ag39
ag39
ag39
ag39
ag39
ag231
ag39
ag231
ag39
ag231
ag39
ag231
ag39
ag231
ag39
ag231
ag39
ag231
ag39
ag231
ag39
ag231
ag39
ag231
ag39
ag231
ag39
ag231
ag229
ag231
ag39
ag231
ag39
ag39
ag39
ag231
ag39
ag231
ag39
ag231
ag39
ag231
ag39
ag231
aa(lp297
g166
ag231
ag102
ag231
ag102
ag39
ag102
ag39
ag102
ag231
ag102
ag39
ag39
ag39
ag39
ag231
ag102
ag39
ag39
ag39
ag39
ag39
ag39
ag231
ag39
ag231
ag39
ag231
ag39
ag231
ag39
ag231
ag39
ag231
ag39
ag231
ag39
ag231
ag39
ag231
ag231
ag231
ag39
ag231
ag231
ag231
ag39
ag231
ag39
ag231
ag39
ag39
ag39
ag231
ag39
ag231
ag39
ag231
ag39
ag39
ag231
ag231
ag39
ag231
ag39
ag102
ag39
ag102
ag231
ag102
ag39
ag102
ag39
ag102
ag39
ag39
ag39
ag102
ag39
ag39
ag231
ag39
ag231
ag39
ag231
ag39
ag231
ag39
ag231
ag39
ag231
ag39
ag231
ag39
ag231
ag39
ag231
ag39
ag231
ag39
ag231
ag39
ag231
ag39
ag231
ag39
ag39
ag39
ag231
ag39
ag231
ag231
ag231
ag37
ag231
ag39
ag231
ag231
ag231
ag231
ag231
ag39
ag231
ag39
ag231
ag39
ag231
ag231
ag231
ag102
ag231
ag102
ag231
ag102
ag231
ag102
ag39
ag102
ag39
ag102
ag231
ag39
ag231
ag39
ag231
ag39
ag39
ag39
ag39
ag39
ag231
ag39
ag231
ag39
ag39
ag39
ag231
ag39
ag231
ag39
ag231
ag39
ag231
ag39
ag231
ag39
ag231
ag39
ag231
ag102
ag231
ag39
ag231
ag39
ag231
ag39
ag231
ag102
ag231
ag39
ag231
ag39
ag231
ag39
ag231
ag39
ag231
ag231
ag231
ag39
ag231
ag39
ag166
ag39
ag102
ag39
ag102
ag39
ag102
ag39
ag102
ag231
ag102
ag231
ag39
ag39
ag39
ag39
ag102
ag39
ag102
ag39
ag102
ag231
ag39
ag231
ag102
ag39
ag39
ag231
ag39
ag231
ag39
ag231
ag39
ag231
ag39
ag166
ag39
ag231
ag39
ag231
ag39
ag231
ag39
ag231
ag39
ag231
ag39
ag231
ag39
ag231
ag231
ag231
ag39
ag231
ag39
ag231
ag231
ag231
ag39
ag231
ag39
ag231
ag39
ag231
aa(lp298
g229
ag39
ag102
ag39
ag102
ag231
ag102
ag39
ag102
ag39
ag102
ag39
ag102
ag231
ag39
ag39
ag102
ag231
ag102
ag231
ag39
ag231
ag39
ag231
ag39
ag39
ag39
ag231
ag39
ag231
ag39
ag231
ag39
ag39
ag39
ag231
ag39
ag231
ag39
ag231
ag102
ag231
ag39
ag231
ag39
ag231
ag39
ag231
ag39
ag231
ag39
ag231
ag39
ag231
ag39
ag231
ag39
ag231
ag39
ag231
ag39
ag231
ag39
ag231
ag39
ag166
ag39
ag102
ag231
ag102
ag39
ag102
ag39
ag102
ag39
ag102
ag39
ag39
ag39
ag102
ag39
ag39
ag39
ag39
ag231
ag39
ag231
ag39
ag39
ag39
ag231
ag39
ag231
ag39
ag39
ag39
ag39
ag39
ag231
ag39
ag231
ag39
ag231
ag39
ag231
ag39
ag231
ag39
ag231
ag39
ag231
ag39
ag231
ag39
ag231
ag39
ag231
ag39
ag231
ag39
ag231
ag39
ag231
ag39
ag231
ag39
ag231
ag39
ag39
ag102
ag231
ag102
ag39
ag102
ag39
ag102
ag39
ag102
ag39
ag102
ag231
ag102
ag231
ag39
ag39
ag102
ag231
ag39
ag39
ag39
ag39
ag39
ag39
ag39
ag231
ag39
ag39
ag39
ag231
ag39
ag39
ag39
ag231
ag39
ag231
ag39
ag231
ag39
ag231
ag39
ag231
ag39
ag231
ag39
ag231
ag39
ag231
ag39
ag231
ag39
ag231
ag39
ag231
ag39
ag231
ag39
ag231
ag39
ag231
ag39
ag231
ag39
ag166
ag39
ag102
ag39
ag102
ag39
ag102
ag231
ag102
ag39
ag102
ag39
ag102
ag231
ag39
ag231
ag102
ag231
ag39
ag39
ag39
ag231
ag39
ag231
ag39
ag39
ag39
ag231
ag39
ag231
ag39
ag39
ag39
ag39
ag39
ag231
ag39
ag231
ag39
ag231
ag39
ag231
ag39
ag231
ag39
ag231
ag39
ag231
ag39
ag231
ag39
ag231
ag39
ag231
ag39
ag39
ag39
ag231
ag39
ag231
ag39
ag231
ag39
ag39
aa(lp299
g37
aS'137'
p300
ag37
aS'133'
p301
ag229
aS'129'
p302
ag166
aS'125'
p303
ag229
aS'121'
p304
ag166
aS'117'
p305
ag102
aS'113'
p306
ag102
aS'109'
p307
ag102
aS'105'
p308
ag102
aS'101'
p309
ag39
aS'97'
p310
ag39
aS'93'
p311
ag39
aS'89'
p312
aS'11'
p313
aS'85'
p314
aS'10'
p315
aS'81'
p316
aS'208'
p317
aS'77'
p318
aS'204'
p319
aS'73'
p320
aS'200'
p321
aS'69'
p322
aS'196'
p323
aS'65'
p324
aS'192'
p325
aS'61'
p326
aS'188'
p327
aS'57'
p328
aS'184'
p329
aS'53'
p330
aS'180'
p331
aS'49'
p332
aS'176'
p333
aS'45'
p334
aS'172'
p335
aS'41'
p336
aS'168'
p337
aS'37'
p338
aS'164'
p339
aS'33'
p340
aS'160'
p341
aS'29'
p342
aS'156'
p343
aS'25'
p344
aS'152'
p345
aS'21'
p346
aS'148'
p347
aS'17'
p348
aS'144'
p349
aS'13'
p350
aS'140'
p351
ag37
aS'136'
p352
ag229
aS'132'
p353
ag229
aS'128'
p354
ag229
aS'124'
p355
ag229
aS'120'
p356
ag102
aS'116'
p357
ag102
aS'112'
p358
ag102
aS'108'
p359
ag231
aS'104'
p360
ag231
aS'100'
p361
ag102
aS'96'
p362
ag39
aS'92'
p363
aS'211'
p364
aS'88'
p365
aS'10'
p366
aS'84'
p367
aS'209'
p368
aS'80'
p369
aS'205'
p370
aS'76'
p371
aS'201'
p372
aS'72'
p373
aS'197'
p374
aS'68'
p375
aS'193'
p376
aS'64'
p377
aS'189'
p378
aS'60'
p379
aS'185'
p380
aS'56'
p381
aS'181'
p382
aS'52'
p383
aS'177'
p384
aS'48'
p385
aS'173'
p386
aS'44'
p387
aS'169'
p388
aS'40'
p389
aS'165'
p390
aS'36'
p391
aS'161'
p392
aS'32'
p393
aS'157'
p394
aS'28'
p395
aS'153'
p396
aS'24'
p397
aS'149'
p398
aS'20'
p399
aS'145'
p400
aS'16'
p401
aS'141'
p402
aS'139'
p403
ag37
aS'135'
p404
ag37
aS'131'
p405
ag229
aS'127'
p406
ag166
aS'123'
p407
ag166
aS'119'
p408
ag102
aS'115'
p409
ag102
aS'111'
p410
ag102
aS'107'
p411
ag39
aS'103'
p412
ag102
aS'99'
p413
aS'12'
p414
aS'95'
p415
ag39
aS'91'
p416
ag231
aS'87'
p417
ag231
aS'83'
p418
aS'210'
p419
aS'79'
p420
aS'206'
p421
aS'75'
p422
aS'202'
p423
aS'71'
p424
aS'198'
p425
aS'67'
p426
aS'194'
p427
aS'63'
p428
aS'190'
p429
aS'59'
p430
aS'186'
p431
aS'55'
p432
aS'182'
p433
aS'51'
p434
aS'178'
p435
aS'47'
p436
aS'174'
p437
aS'43'
p438
aS'170'
p439
aS'39'
p440
aS'166'
p441
aS'35'
p442
aS'162'
p443
aS'31'
p444
aS'158'
p445
aS'27'
p446
aS'154'
p447
aS'23'
p448
aS'150'
p449
aS'19'
p450
aS'146'
p451
aS'15'
p452
aS'142'
p453
ag37
aS'138'
p454
ag37
aS'134'
p455
ag229
aS'130'
p456
ag229
aS'126'
p457
ag229
aS'122'
p458
ag166
aS'118'
p459
ag166
aS'114'
p460
ag102
aS'110'
p461
ag102
aS'106'
p462
ag39
aS'102'
p463
ag231
aS'98'
p464
ag231
aS'94'
p465
ag39
aS'90'
p466
aS'10'
p467
aS'86'
p468
aS'211'
p469
aS'82'
p470
aS'207'
p471
aS'78'
p472
aS'203'
p473
aS'74'
p474
aS'199'
p475
aS'70'
p476
aS'195'
p477
aS'66'
p478
aS'191'
p479
aS'62'
p480
aS'187'
p481
aS'58'
p482
aS'183'
p483
aS'54'
p484
aS'179'
p485
aS'50'
p486
aS'175'
p487
aS'46'
p488
aS'171'
p489
aS'42'
p490
aS'167'
p491
aS'38'
p492
aS'163'
p493
aS'34'
p494
aS'159'
p495
aS'30'
p496
aS'155'
p497
aS'26'
p498
aS'151'
p499
aS'22'
p500
aS'147'
p501
aS'18'
p502
aS'143'
p503
aS'14'
p504
aassI2
(dp505
I1000
(F5098000.0
I5203256
F12405.0
tp506
sI100
(F5103019.0
I5203256
F12405.0
tp507
sg5
(lp508
I544
aI106
asI20
(F5123672.0
I5203256
F12405.0
tp509
sg8
(lp510
(lp511
g11
ag12
ag13
ag14
ag15
ag16
ag17
ag18
ag19
ag20
ag21
ag22
ag23
ag24
ag25
ag26
ag27
ag28
ag29
ag30
ag31
ag32
ag33
ag34
ag35
ag36
ag37
ag38
ag39
ag40
ag41
ag42
ag43
ag44
ag45
ag46
ag47
ag48
ag49
ag50
ag51
ag52
ag53
ag54
ag55
ag56
ag57
ag58
ag59
ag60
ag61
ag62
ag63
ag64
ag65
ag66
ag67
ag68
ag69
ag70
ag71
ag72
ag73
ag74
ag75
ag76
ag77
ag78
ag79
ag80
ag81
ag82
ag83
ag84
ag85
ag86
ag87
ag88
ag89
ag90
ag91
ag92
ag93
ag94
ag95
ag96
ag97
ag98
ag99
ag100
ag101
ag102
ag103
ag104
ag105
ag106
ag107
ag108
ag109
ag110
ag111
ag112
ag113
ag114
ag115
ag116
ag117
ag118
ag119
ag120
ag121
ag122
ag123
ag124
ag125
ag126
ag127
ag128
ag129
ag130
ag131
ag132
ag133
ag134
ag135
ag136
ag137
ag138
ag139
ag140
ag141
ag142
ag143
ag144
ag145
ag146
ag147
ag148
ag149
ag150
ag151
ag152
ag153
ag154
ag155
ag156
ag157
ag158
ag159
ag160
ag161
ag162
ag163
ag164
ag165
ag166
ag167
ag168
ag169
ag170
ag171
ag172
ag173
ag174
ag175
ag176
ag177
ag178
ag179
ag180
ag181
ag182
ag183
ag184
ag185
ag186
ag187
ag188
ag189
ag190
ag191
ag192
ag193
ag194
ag195
ag196
ag197
ag198
ag199
ag200
ag201
ag202
ag203
ag204
ag205
ag206
ag207
ag208
ag209
ag210
ag211
ag212
ag213
ag214
ag215
ag216
ag217
ag218
ag219
ag220
ag221
ag222
ag223
ag224
ag225
ag226
ag227
ag228
ag229
ag230
ag231
ag232
ag233
ag234
ag235
ag236
ag237
ag238
ag239
ag240
ag241
ag242
ag243
ag244
ag245
ag246
ag247
ag248
ag249
ag250
ag251
ag252
ag253
ag254
ag255
ag256
ag257
ag258
ag259
ag260
ag261
ag262
ag263
ag264
ag265
ag266
aa(lp512
g229
ag39
ag102
ag39
ag102
ag39
ag102
ag39
ag102
ag39
ag102
ag39
ag102
ag231
ag102
ag39
ag102
ag231
ag39
ag231
ag39
ag231
ag39
ag231
ag39
ag39
ag39
ag231
ag39
ag231
ag39
ag231
ag39
ag39
ag39
ag231
ag39
ag231
ag39
ag231
ag39
ag231
ag39
ag231
ag39
ag231
ag39
ag231
ag39
ag231
ag39
ag231
ag39
ag231
ag39
ag231
ag39
ag231
ag39
ag231
ag39
ag231
ag39
ag231
ag39
ag166
ag39
ag102
ag39
ag102
ag39
ag102
ag39
ag102
ag39
ag102
ag39
ag102
ag39
ag102
ag39
ag39
ag231
ag39
ag231
ag39
ag231
ag39
ag231
ag39
ag231
ag39
ag231
ag39
ag231
ag39
ag231
ag39
ag39
ag39
ag231
ag39
ag231
ag39
ag231
ag39
ag231
ag39
ag231
ag39
ag231
ag102
ag231
ag102
ag231
ag39
ag231
ag39
ag231
ag39
ag231
ag39
ag231
ag39
ag231
ag39
ag231
ag39
ag39
ag102
ag39
ag102
ag39
ag102
ag39
ag102
ag39
ag102
ag39
ag102
ag231
ag102
ag39
ag39
ag231
ag39
ag231
ag39
ag231
ag39
ag231
ag39
ag231
ag39
ag231
ag39
ag231
ag39
ag231
ag39
ag231
ag39
ag39
ag39
ag231
ag39
ag231
ag39
ag231
ag39
ag231
ag39
ag231
ag39
ag231
ag39
ag231
ag102
ag231
ag39
ag231
ag39
ag231
ag39
ag231
ag39
ag231
ag39
ag231
ag39
ag231
ag39
ag166
ag39
ag102
ag39
ag102
ag39
ag102
ag39
ag102
ag39
ag102
ag39
ag102
ag231
ag39
ag39
ag102
ag39
ag39
ag231
ag39
ag231
ag39
ag231
ag39
ag231
ag39
ag231
ag39
ag231
ag39
ag231
ag39
ag231
ag39
ag39
ag39
ag231
ag39
ag231
ag39
ag231
ag39
ag231
ag39
ag231
ag39
ag231
ag102
ag231
ag39
ag231
ag39
ag231
ag39
ag231
ag39
ag231
ag39
ag231
ag39
ag231
ag39
ag231
aa(lp513
g166
ag39
ag102
ag39
ag102
ag39
ag102
ag231
ag102
ag231
ag102
ag231
ag102
ag231
ag39
ag39
ag102
ag231
ag39
ag231
ag39
ag231
ag39
ag231
ag102
ag231
ag39
ag231
ag39
ag231
ag39
ag231
ag39
ag231
ag39
ag231
ag39
ag231
ag39
ag231
ag39
ag231
ag39
ag231
ag39
ag231
ag39
ag231
ag37
ag231
ag39
ag231
ag39
ag231
ag39
ag231
ag39
ag231
ag39
ag231
ag39
ag231
ag39
ag231
ag39
ag102
ag39
ag102
ag39
ag102
ag39
ag102
ag39
ag102
ag39
ag39
ag231
ag39
ag231
ag39
ag39
ag39
ag231
ag39
ag231
ag39
ag231
ag39
ag39
ag39
ag231
ag39
ag231
ag39
ag231
ag39
ag166
ag39
ag231
ag39
ag231
ag39
ag231
ag39
ag231
ag39
ag231
ag39
ag231
ag39
ag231
ag39
ag231
ag39
ag231
ag39
ag231
ag39
ag231
ag39
ag231
ag39
ag231
ag39
ag231
ag39
ag231
ag231
ag39
ag102
ag39
ag102
ag39
ag102
ag39
ag102
ag231
ag102
ag39
ag102
ag39
ag102
ag39
ag39
ag39
ag39
ag231
ag39
ag231
ag39
ag231
ag39
ag39
ag39
ag231
ag39
ag231
ag39
ag231
ag39
ag102
ag39
ag231
ag39
ag231
ag39
ag231
ag39
ag231
ag39
ag231
ag39
ag231
ag39
ag231
ag39
ag39
ag39
ag231
ag39
ag231
ag39
ag231
ag39
ag231
ag39
ag231
ag39
ag231
ag39
ag231
ag39
ag166
ag231
ag102
ag231
ag102
ag39
ag102
ag39
ag102
ag231
ag102
ag231
ag102
ag231
ag39
ag231
ag39
ag39
ag39
ag231
ag39
ag231
ag39
ag231
ag39
ag231
ag39
ag231
ag39
ag231
ag39
ag231
ag39
ag231
ag39
ag231
ag39
ag231
ag39
ag231
ag39
ag231
ag39
ag231
ag39
ag231
ag39
ag231
ag39
ag231
ag39
ag231
ag39
ag231
ag39
ag231
ag39
ag231
ag39
ag231
ag39
ag231
ag39
ag231
aassI4
(dp514
I1000
(F5085629.0
I5203256
F24814.0
tp515
sI100
(F5093439.0
I5203256
F24814.0
tp516
sg5
(lp517
I344
aI130
aI103
aI73
asI20
(F5131849.0
I5203256
F24814.0
tp518
sg8
(lp519
(lp520
g11
ag12
ag13
ag14
ag15
ag16
ag17
ag18
ag19
ag20
ag21
ag22
ag23
ag24
ag25
ag26
ag27
ag28
ag29
ag30
ag31
ag32
ag33
ag34
ag35
ag36
ag37
ag38
ag39
ag40
ag41
ag42
ag43
ag44
ag45
ag46
ag47
ag48
ag49
ag50
ag51
ag52
ag53
ag54
ag55
ag56
ag57
ag58
ag59
ag60
ag61
ag62
ag63
ag64
ag65
ag66
ag67
ag68
ag69
ag70
ag71
ag72
ag73
ag74
ag75
ag76
ag77
ag78
ag79
ag80
ag81
ag82
ag83
ag84
ag85
ag86
ag87
ag88
ag89
ag90
ag91
ag92
ag93
ag94
ag95
ag96
ag97
ag98
ag99
ag100
ag101
ag102
ag103
ag104
ag105
ag106
ag107
ag108
ag109
ag110
ag111
ag112
ag113
ag114
ag115
ag116
ag117
ag118
ag119
ag120
ag121
ag122
ag123
ag124
ag125
ag126
ag127
ag128
ag129
ag130
ag131
ag132
ag133
ag134
ag135
ag136
ag137
ag138
ag139
ag140
ag141
ag142
ag143
ag144
ag145
ag146
ag147
ag148
ag149
ag150
ag151
ag152
ag153
ag154
ag155
ag156
ag157
ag158
ag159
ag160
ag161
ag162
ag163
ag164
ag165
ag166
ag167
ag168
ag169
ag170
ag171
ag172
ag173
ag174
ag175
ag176
ag177
ag178
ag179
ag180
ag181
ag182
ag183
ag184
ag185
ag186
ag187
ag188
ag189
ag190
ag191
ag192
ag193
ag194
ag195
ag196
ag197
ag198
ag199
ag200
ag201
ag202
ag203
ag204
ag205
ag206
ag207
ag208
ag209
ag210
ag211
ag212
ag213
ag214
ag215
ag216
ag217
ag218
ag219
ag220
ag221
ag222
ag223
ag224
ag225
ag226
ag227
ag228
ag229
ag230
ag231
ag232
ag233
ag234
ag235
ag236
ag237
ag238
ag239
ag240
ag241
ag242
ag243
ag244
ag245
ag246
ag247
ag248
ag249
ag250
ag251
ag252
ag253
ag254
ag255
ag256
ag257
ag258
ag259
ag260
ag261
ag262
ag263
ag264
ag265
ag266
aa(lp521
g166
ag39
ag102
ag39
ag102
ag39
ag102
ag231
ag102
ag39
ag102
ag39
ag102
ag231
ag102
ag39
ag102
ag39
ag39
ag231
ag39
ag231
ag39
ag231
ag39
ag39
ag39
ag231
ag39
ag231
ag39
ag39
ag39
ag102
ag39
ag231
ag39
ag231
ag39
ag231
ag39
ag231
ag39
ag231
ag39
ag231
ag39
ag231
ag39
ag231
ag39
ag231
ag39
ag231
ag39
ag231
ag39
ag231
ag39
ag231
ag39
ag231
ag39
ag231
ag39
ag166
ag39
ag102
ag39
ag102
ag39
ag102
ag39
ag102
ag39
ag102
ag39
ag102
ag39
ag102
ag39
ag39
ag231
ag39
ag231
ag39
ag39
ag39
ag231
ag39
ag231
ag39
ag231
ag39
ag231
ag39
ag231
ag39
ag231
ag39
ag231
ag39
ag231
ag39
ag231
ag39
ag231
ag39
ag231
ag39
ag231
ag102
ag231
ag102
ag231
ag39
ag231
ag39
ag231
ag39
ag231
ag39
ag231
ag39
ag231
ag39
ag231
ag39
ag39
ag102
ag39
ag102
ag39
ag102
ag39
ag102
ag39
ag102
ag39
ag102
ag231
ag102
ag39
ag39
ag231
ag39
ag39
ag39
ag231
ag39
ag231
ag39
ag231
ag39
ag231
ag39
ag231
ag39
ag231
ag39
ag39
ag39
ag231
ag39
ag231
ag39
ag231
ag39
ag231
ag39
ag231
ag39
ag231
ag39
ag231
ag39
ag231
ag39
ag231
ag39
ag231
ag39
ag231
ag39
ag231
ag39
ag231
ag39
ag231
ag39
ag231
ag39
ag166
ag39
ag102
ag39
ag102
ag39
ag102
ag39
ag102
ag39
ag102
ag39
ag102
ag231
ag39
ag39
ag102
ag39
ag39
ag231
ag39
ag231
ag39
ag231
ag39
ag231
ag39
ag231
ag39
ag231
ag39
ag39
ag39
ag39
ag39
ag39
ag39
ag231
ag39
ag231
ag39
ag231
ag39
ag231
ag39
ag231
ag39
ag231
ag166
ag231
ag39
ag231
ag39
ag231
ag39
ag231
ag39
ag231
ag39
ag231
ag39
ag231
ag39
ag231
aa(lp522
g37
ag39
ag102
ag39
ag102
ag39
ag102
ag39
ag102
ag39
ag102
ag231
ag102
ag231
ag102
ag39
ag102
ag231
ag102
ag231
ag39
ag231
ag39
ag231
ag39
ag231
ag39
ag231
ag39
ag231
ag39
ag231
ag39
ag231
ag39
ag231
ag39
ag231
ag39
ag231
ag39
ag231
ag39
ag231
ag39
ag231
ag39
ag231
ag39
ag231
ag39
ag231
ag39
ag231
ag39
ag231
ag39
ag231
ag39
ag231
ag39
ag231
ag39
ag231
ag39
ag166
ag39
ag102
ag231
ag102
ag39
ag102
ag39
ag102
ag39
ag102
ag231
ag102
ag231
ag102
ag231
ag102
ag39
ag39
ag231
ag39
ag231
ag39
ag231
ag39
ag231
ag39
ag231
ag39
ag231
ag39
ag39
ag39
ag231
ag39
ag231
ag39
ag231
ag39
ag231
ag39
ag231
ag39
ag231
ag39
ag231
ag39
ag231
ag39
ag231
ag39
ag231
ag39
ag231
ag39
ag231
ag39
ag231
ag39
ag231
ag39
ag231
ag39
ag39
ag102
ag231
ag102
ag231
ag102
ag231
ag102
ag39
ag102
ag39
ag102
ag39
ag102
ag231
ag102
ag231
ag39
ag231
ag39
ag231
ag39
ag231
ag39
ag39
ag39
ag231
ag39
ag231
ag39
ag231
ag39
ag231
ag39
ag231
ag39
ag231
ag39
ag231
ag39
ag231
ag39
ag231
ag39
ag231
ag39
ag231
ag39
ag231
ag39
ag231
ag39
ag231
ag39
ag231
ag39
ag231
ag39
ag231
ag39
ag231
ag39
ag231
ag39
ag166
ag39
ag102
ag39
ag102
ag231
ag102
ag231
ag102
ag231
ag102
ag39
ag102
ag231
ag39
ag39
ag102
ag231
ag39
ag231
ag39
ag231
ag39
ag231
ag39
ag231
ag39
ag231
ag39
ag231
ag39
ag231
ag39
ag231
ag39
ag231
ag39
ag231
ag39
ag231
ag39
ag231
ag39
ag231
ag39
ag231
ag39
ag231
ag39
ag231
ag39
ag231
ag39
ag231
ag39
ag231
ag39
ag231
ag39
ag231
ag39
ag231
ag39
ag231
aa(lp523
g166
ag39
ag102
ag39
ag102
ag39
ag102
ag231
ag102
ag231
ag102
ag231
ag102
ag231
ag39
ag39
ag102
ag231
ag39
ag231
ag39
ag231
ag39
ag231
ag102
ag231
ag39
ag231
ag39
ag231
ag39
ag231
ag39
ag231
ag39
ag231
ag39
ag231
ag39
ag231
ag39
ag231
ag39
ag231
ag39
ag231
ag39
ag231
ag37
ag231
ag39
ag231
ag39
ag231
ag39
ag231
ag39
ag231
ag39
ag231
ag39
ag231
ag39
ag231
ag39
ag102
ag39
ag102
ag39
ag102
ag39
ag102
ag39
ag102
ag39
ag39
ag231
ag39
ag231
ag39
ag39
ag39
ag231
ag39
ag231
ag39
ag231
ag39
ag39
ag39
ag231
ag39
ag231
ag39
ag231
ag39
ag166
ag39
ag231
ag39
ag231
ag39
ag231
ag39
ag231
ag39
ag231
ag39
ag231
ag39
ag231
ag39
ag231
ag39
ag231
ag39
ag231
ag39
ag231
ag39
ag231
ag39
ag231
ag39
ag231
ag39
ag231
ag39
ag39
ag102
ag39
ag102
ag39
ag102
ag39
ag102
ag231
ag102
ag39
ag102
ag39
ag102
ag39
ag39
ag39
ag39
ag39
ag39
ag231
ag39
ag231
ag39
ag39
ag39
ag231
ag39
ag231
ag39
ag231
ag39
ag102
ag39
ag231
ag39
ag231
ag39
ag231
ag39
ag231
ag39
ag231
ag39
ag231
ag39
ag231
ag39
ag39
ag39
ag231
ag39
ag231
ag39
ag231
ag39
ag231
ag39
ag231
ag39
ag231
ag39
ag231
ag39
ag166
ag231
ag102
ag231
ag102
ag39
ag102
ag39
ag102
ag231
ag39
ag231
ag102
ag231
ag39
ag231
ag39
ag39
ag39
ag231
ag39
ag231
ag39
ag231
ag39
ag231
ag39
ag231
ag39
ag231
ag39
ag231
ag39
ag231
ag39
ag231
ag39
ag231
ag39
ag231
ag39
ag231
ag39
ag231
ag39
ag231
ag39
ag231
ag39
ag231
ag39
ag231
ag39
ag231
ag39
ag231
ag39
ag231
ag39
ag231
ag39
ag231
ag39
ag231
aa(lp524
g166
ag39
ag102
ag231
ag102
ag39
ag102
ag39
ag102
ag39
ag102
ag231
ag39
ag39
ag39
ag39
ag102
ag39
ag39
ag231
ag39
ag39
ag39
ag231
ag39
ag39
ag39
ag231
ag39
ag231
ag39
ag231
ag39
ag231
ag39
ag231
ag39
ag231
ag39
ag231
ag39
ag231
ag39
ag231
ag39
ag231
ag39
ag231
ag39
ag231
ag39
ag231
ag39
ag231
ag39
ag231
ag39
ag231
ag39
ag231
ag39
ag231
ag39
ag231
ag39
ag102
ag39
ag102
ag39
ag102
ag39
ag102
ag231
ag39
ag39
ag39
ag39
ag39
ag39
ag39
ag39
ag39
ag39
ag39
ag231
ag102
ag231
ag39
ag39
ag39
ag231
ag39
ag231
ag39
ag231
ag39
ag231
ag39
ag102
ag39
ag231
ag39
ag231
ag39
ag231
ag39
ag231
ag39
ag231
ag39
ag231
ag39
ag231
ag39
ag231
ag39
ag231
ag39
ag231
ag39
ag231
ag39
ag231
ag39
ag231
ag39
ag231
ag39
ag231
ag102
ag231
ag102
ag39
ag102
ag39
ag102
ag39
ag102
ag39
ag102
ag231
ag102
ag39
ag102
ag39
ag39
ag231
ag39
ag231
ag39
ag231
ag39
ag231
ag39
ag39
ag39
ag231
ag39
ag231
ag39
ag231
ag39
ag102
ag39
ag231
ag39
ag231
ag39
ag231
ag39
ag231
ag39
ag231
ag39
ag231
ag39
ag231
ag37
ag231
ag39
ag231
ag39
ag231
ag39
ag231
ag39
ag231
ag39
ag231
ag39
ag231
ag39
ag166
ag39
ag102
ag39
ag102
ag231
ag102
ag39
ag102
ag231
ag102
ag39
ag39
ag39
ag39
ag231
ag39
ag231
ag39
ag231
ag39
ag231
ag39
ag231
ag39
ag231
ag39
ag231
ag39
ag231
ag39
ag231
ag39
ag231
ag39
ag231
ag39
ag231
ag39
ag231
ag39
ag231
ag39
ag231
ag39
ag231
ag39
ag231
ag39
ag231
ag39
ag39
ag39
ag231
ag39
ag231
ag39
ag231
ag39
ag231
ag39
ag231
ag39
ag231
aasssI100
(dp525
I8
(dp526
I1000
(F5078710.0
I5203256
F49640.0
tp527
sI100
(F5084881.0
I5203256
F49640.0
tp528
sg5
(lp529
I1343
aI625
aI2373
aI225
aI466
aI266
aI485
aI721
asI20
(F5137523.0
I5203256
F49640.0
tp530
sg8
(lp531
(lp532
g11
ag12
ag13
ag14
ag15
ag16
ag17
ag18
ag19
ag20
ag21
ag22
ag23
ag24
ag25
ag26
ag27
ag28
ag29
ag30
ag31
ag32
ag33
ag34
ag35
ag36
ag37
ag38
ag39
ag40
ag41
ag42
ag43
ag44
ag45
ag46
ag47
ag48
ag49
ag50
ag51
ag52
ag53
ag54
ag55
ag56
ag57
ag58
ag59
ag60
ag61
ag62
ag63
ag64
ag65
ag66
ag67
ag68
ag69
ag70
ag71
ag72
ag73
ag74
ag75
ag76
ag77
ag78
ag79
ag80
ag81
ag82
ag83
ag84
ag85
ag86
ag87
ag88
ag89
ag90
ag91
ag92
ag93
ag94
ag95
ag96
ag97
ag98
ag99
ag100
ag101
ag102
ag103
ag104
ag105
ag106
ag107
ag108
ag109
ag110
ag111
ag112
ag113
ag114
ag115
ag116
ag117
ag118
ag119
ag120
ag121
ag122
ag123
ag124
ag125
ag126
ag127
ag128
ag129
ag130
ag131
ag132
ag133
ag134
ag135
ag136
ag137
ag138
ag139
ag140
ag141
ag142
ag143
ag144
ag145
ag146
ag147
ag148
ag149
ag150
ag151
ag152
ag153
ag154
ag155
ag156
ag157
ag158
ag159
ag160
ag161
ag162
ag163
ag164
ag165
ag166
ag167
ag168
ag169
ag170
ag171
ag172
ag173
ag174
ag175
ag176
ag177
ag178
ag179
ag180
ag181
ag182
ag183
ag184
ag185
ag186
ag187
ag188
ag189
ag190
ag191
ag192
ag193
ag194
ag195
ag196
ag197
ag198
ag199
ag200
ag201
ag202
ag203
ag204
ag205
ag206
ag207
ag208
ag209
ag210
ag211
ag212
ag213
ag214
ag215
ag216
ag217
ag218
ag219
ag220
ag221
ag222
ag223
ag224
ag225
ag226
ag227
ag228
ag229
ag230
ag231
ag232
ag233
ag234
ag235
ag236
ag237
ag238
ag239
ag240
ag241
ag242
ag243
ag244
ag245
ag246
ag247
ag248
ag249
ag250
ag251
ag252
ag253
ag254
ag255
ag256
ag257
ag258
ag259
ag260
ag261
ag262
ag263
ag264
ag265
ag266
aa(lp533
g229
ag39
ag102
ag39
ag102
ag39
ag102
ag39
ag102
ag39
ag102
ag39
ag102
ag231
ag102
ag231
ag102
ag231
ag39
ag231
ag39
ag231
ag39
ag231
ag39
ag39
ag39
ag231
ag39
ag231
ag39
ag39
ag39
ag39
ag39
ag231
ag39
ag231
ag39
ag231
ag39
ag231
ag39
ag231
ag39
ag231
ag39
ag231
ag39
ag231
ag39
ag231
ag39
ag231
ag39
ag231
ag39
ag231
ag39
ag231
ag39
ag231
ag39
ag231
ag39
ag166
ag39
ag102
ag39
ag102
ag39
ag102
ag39
ag102
ag39
ag102
ag231
ag102
ag39
ag102
ag39
ag39
ag231
ag39
ag231
ag39
ag39
ag39
ag231
ag39
ag231
ag39
ag231
ag39
ag231
ag39
ag39
ag39
ag231
ag39
ag231
ag39
ag231
ag39
ag231
ag39
ag231
ag39
ag231
ag39
ag231
ag39
ag231
ag39
ag231
ag39
ag231
ag39
ag231
ag39
ag231
ag39
ag231
ag39
ag231
ag39
ag231
ag39
ag231
ag102
ag39
ag102
ag39
ag102
ag39
ag102
ag39
ag102
ag39
ag102
ag39
ag102
ag39
ag102
ag231
ag39
ag231
ag39
ag231
ag39
ag39
ag39
ag39
ag39
ag231
ag39
ag231
ag39
ag231
ag39
ag39
ag39
ag39
ag39
ag231
ag39
ag231
ag39
ag231
ag39
ag231
ag39
ag231
ag39
ag231
ag39
ag231
ag39
ag231
ag39
ag231
ag39
ag231
ag39
ag231
ag39
ag231
ag39
ag231
ag39
ag231
ag39
ag166
ag39
ag102
ag39
ag102
ag231
ag102
ag39
ag102
ag39
ag102
ag39
ag102
ag231
ag102
ag39
ag102
ag231
ag39
ag39
ag102
ag231
ag39
ag231
ag39
ag231
ag39
ag231
ag39
ag231
ag39
ag231
ag39
ag231
ag39
ag39
ag39
ag231
ag39
ag231
ag39
ag231
ag39
ag231
ag39
ag231
ag39
ag231
ag39
ag231
ag39
ag231
ag39
ag231
ag39
ag231
ag39
ag231
ag39
ag231
ag39
ag231
ag39
ag231
aa(lp534
g100
ag39
ag102
ag39
ag102
ag231
ag102
ag231
ag102
ag231
ag102
ag231
ag102
ag231
ag39
ag39
ag39
ag231
ag39
ag231
ag39
ag231
ag39
ag231
ag39
ag231
ag39
ag231
ag39
ag39
ag39
ag231
ag39
ag231
ag39
ag231
ag39
ag231
ag39
ag231
ag39
ag231
ag39
ag231
ag39
ag231
ag39
ag231
ag39
ag231
ag39
ag231
ag39
ag231
ag39
ag231
ag231
ag231
ag39
ag231
ag231
ag231
ag39
ag231
ag39
ag166
ag39
ag102
ag231
ag102
ag231
ag102
ag231
ag102
ag231
ag102
ag231
ag102
ag231
ag39
ag231
ag102
ag231
ag39
ag231
ag39
ag231
ag39
ag231
ag39
ag231
ag39
ag231
ag39
ag231
ag39
ag231
ag39
ag231
ag39
ag231
ag39
ag231
ag39
ag231
ag39
ag231
ag39
ag231
ag39
ag231
ag39
ag231
ag39
ag231
ag39
ag231
ag39
ag231
ag39
ag231
ag39
ag231
ag39
ag231
ag39
ag231
ag39
ag39
ag102
ag231
ag102
ag231
ag102
ag231
ag102
ag231
ag102
ag39
ag39
ag39
ag102
ag231
ag39
ag231
ag39
ag231
ag39
ag231
ag39
ag231
ag39
ag231
ag39
ag231
ag39
ag231
ag39
ag231
ag39
ag231
ag39
ag231
ag39
ag231
ag39
ag231
ag39
ag231
ag39
ag231
ag39
ag231
ag39
ag231
ag39
ag231
ag39
ag231
ag39
ag231
ag39
ag231
ag39
ag231
ag39
ag231
ag39
ag231
ag39
ag231
ag231
ag166
ag39
ag102
ag39
ag102
ag231
ag102
ag231
ag102
ag231
ag39
ag231
ag39
ag231
ag39
ag39
ag39
ag231
ag39
ag231
ag39
ag231
ag39
ag231
ag39
ag231
ag39
ag231
ag39
ag231
ag39
ag231
ag39
ag231
ag39
ag231
ag39
ag231
ag39
ag231
ag39
ag231
ag39
ag231
ag39
ag231
ag39
ag231
ag39
ag231
ag39
ag231
ag39
ag231
ag39
ag231
ag39
ag231
ag39
ag231
ag231
ag231
ag39
ag231
aa(lp535
g102
ag39
ag102
ag39
ag102
ag39
ag102
ag231
ag102
ag39
ag102
ag39
ag102
ag231
ag102
ag39
ag102
ag39
ag39
ag39
ag39
ag231
ag39
ag231
ag39
ag39
ag39
ag231
ag39
ag231
ag39
ag231
ag39
ag39
ag39
ag231
ag39
ag231
ag39
ag231
ag39
ag231
ag39
ag231
ag39
ag231
ag39
ag231
ag102
ag39
ag39
ag231
ag39
ag231
ag39
ag231
ag39
ag231
ag39
ag231
ag39
ag231
ag39
ag231
ag39
ag166
ag39
ag102
ag39
ag102
ag39
ag102
ag39
ag102
ag39
ag102
ag39
ag102
ag39
ag102
ag39
ag39
ag39
ag39
ag231
ag39
ag39
ag39
ag39
ag39
ag231
ag39
ag231
ag39
ag231
ag39
ag39
ag39
ag39
ag39
ag231
ag39
ag231
ag39
ag231
ag39
ag231
ag39
ag231
ag39
ag231
ag39
ag231
ag39
ag231
ag39
ag231
ag39
ag231
ag39
ag231
ag39
ag231
ag39
ag231
ag39
ag231
ag39
ag39
ag102
ag39
ag102
ag39
ag102
ag39
ag102
ag39
ag102
ag39
ag102
ag39
ag102
ag39
ag102
ag231
ag39
ag39
ag39
ag231
ag39
ag231
ag39
ag231
ag39
ag231
ag39
ag231
ag39
ag231
ag39
ag39
ag39
ag39
ag39
ag231
ag39
ag231
ag39
ag231
ag39
ag231
ag39
ag231
ag39
ag231
ag39
ag231
ag39
ag231
ag39
ag231
ag39
ag231
ag39
ag231
ag39
ag231
ag39
ag231
ag39
ag231
ag39
ag166
ag39
ag102
ag39
ag102
ag39
ag102
ag39
ag102
ag39
ag102
ag39
ag102
ag231
ag102
ag39
ag102
ag39
ag39
ag231
ag39
ag231
ag39
ag231
ag39
ag39
ag39
ag231
ag39
ag39
ag39
ag39
ag39
ag39
ag39
ag39
ag39
ag231
ag39
ag231
ag39
ag231
ag39
ag39
ag39
ag231
ag39
ag231
ag39
ag231
ag39
ag231
ag39
ag231
ag39
ag231
ag39
ag231
ag39
ag231
ag39
ag231
ag39
ag231
aa(lp536
g166
ag39
ag102
ag231
ag102
ag39
ag102
ag39
ag102
ag231
ag102
ag39
ag102
ag231
ag102
ag39
ag39
ag39
ag39
ag39
ag39
ag231
ag39
ag231
ag39
ag231
ag39
ag231
ag39
ag231
ag39
ag39
ag39
ag231
ag39
ag231
ag39
ag231
ag39
ag39
ag39
ag39
ag39
ag39
ag39
ag231
ag39
ag231
ag39
ag231
ag39
ag231
ag39
ag231
ag231
ag231
ag39
ag231
ag39
ag231
ag39
ag231
ag231
ag231
ag39
ag102
ag39
ag102
ag39
ag102
ag39
ag102
ag231
ag39
ag231
ag39
ag39
ag39
ag231
ag102
ag39
ag102
ag231
ag39
ag39
ag39
ag231
ag102
ag39
ag39
ag231
ag39
ag39
ag39
ag231
ag39
ag231
ag39
ag231
ag39
ag231
ag39
ag231
ag39
ag231
ag39
ag231
ag39
ag231
ag39
ag231
ag37
ag231
ag39
ag231
ag39
ag231
ag39
ag231
ag39
ag231
ag231
ag231
ag39
ag231
ag39
ag231
ag39
ag39
ag102
ag231
ag102
ag39
ag102
ag39
ag102
ag231
ag102
ag39
ag102
ag39
ag102
ag39
ag102
ag39
ag39
ag231
ag39
ag231
ag39
ag231
ag39
ag231
ag39
ag231
ag39
ag231
ag39
ag231
ag39
ag231
ag39
ag231
ag39
ag231
ag39
ag231
ag39
ag231
ag39
ag231
ag39
ag231
ag39
ag231
ag39
ag231
ag39
ag231
ag39
ag231
ag39
ag231
ag39
ag231
ag39
ag231
ag231
ag231
ag231
ag231
ag39
ag166
ag39
ag102
ag39
ag102
ag231
ag102
ag39
ag102
ag231
ag39
ag231
ag102
ag231
ag102
ag39
ag39
ag231
ag39
ag231
ag39
ag39
ag39
ag39
ag39
ag231
ag39
ag231
ag39
ag231
ag39
ag39
ag39
ag231
ag39
ag231
ag39
ag231
ag39
ag231
ag39
ag231
ag39
ag231
ag39
ag231
ag39
ag231
ag39
ag231
ag39
ag231
ag39
ag231
ag39
ag231
ag39
ag231
ag39
ag231
ag39
ag231
ag39
ag39
aa(lp537
g166
ag39
ag102
ag39
ag102
ag39
ag102
ag231
ag102
ag231
ag102
ag39
ag102
ag39
ag102
ag231
ag102
ag231
ag39
ag231
ag39
ag231
ag39
ag39
ag39
ag39
ag39
ag39
ag39
ag231
ag39
ag231
ag39
ag166
ag39
ag231
ag39
ag231
ag39
ag231
ag39
ag231
ag39
ag231
ag39
ag231
ag39
ag231
ag39
ag231
ag39
ag231
ag39
ag231
ag39
ag231
ag39
ag231
ag39
ag231
ag39
ag231
ag39
ag231
ag231
ag102
ag39
ag102
ag39
ag102
ag231
ag102
ag231
ag102
ag231
ag39
ag39
ag39
ag231
ag39
ag39
ag39
ag231
ag39
ag231
ag39
ag231
ag39
ag231
ag39
ag231
ag39
ag231
ag39
ag231
ag39
ag231
ag39
ag231
ag39
ag231
ag39
ag231
ag39
ag231
ag39
ag231
ag39
ag231
ag39
ag231
ag39
ag231
ag39
ag231
ag39
ag231
ag39
ag231
ag39
ag231
ag39
ag231
ag39
ag231
ag39
ag231
ag39
ag231
ag102
ag39
ag102
ag231
ag102
ag39
ag102
ag39
ag39
ag231
ag102
ag231
ag102
ag39
ag102
ag231
ag39
ag39
ag39
ag231
ag39
ag231
ag39
ag231
ag39
ag231
ag39
ag231
ag39
ag231
ag39
ag39
ag39
ag231
ag39
ag231
ag39
ag231
ag39
ag231
ag39
ag231
ag39
ag231
ag39
ag39
ag39
ag231
ag39
ag231
ag39
ag231
ag39
ag231
ag39
ag231
ag39
ag231
ag39
ag231
ag39
ag231
ag39
ag166
ag39
ag102
ag39
ag102
ag231
ag102
ag39
ag102
ag39
ag102
ag231
ag102
ag231
ag39
ag231
ag39
ag39
ag39
ag231
ag39
ag39
ag39
ag231
ag39
ag39
ag39
ag231
ag39
ag231
ag39
ag231
ag39
ag39
ag39
ag231
ag39
ag231
ag39
ag231
ag39
ag231
ag39
ag231
ag39
ag231
ag39
ag231
ag37
ag231
ag39
ag231
ag39
ag231
ag39
ag231
ag39
ag231
ag39
ag231
ag39
ag231
ag39
ag231
aa(lp538
g166
ag39
ag102
ag231
ag102
ag39
ag102
ag39
ag102
ag231
ag102
ag39
ag39
ag39
ag39
ag231
ag102
ag39
ag102
ag39
ag39
ag231
ag39
ag231
ag39
ag231
ag39
ag231
ag39
ag231
ag39
ag231
ag39
ag231
ag39
ag231
ag39
ag231
ag39
ag231
ag39
ag231
ag231
ag231
ag39
ag231
ag39
ag231
ag39
ag231
ag39
ag231
ag39
ag231
ag39
ag231
ag39
ag231
ag39
ag39
ag39
ag231
ag39
ag231
ag39
ag102
ag39
ag102
ag231
ag102
ag39
ag102
ag39
ag102
ag39
ag39
ag39
ag102
ag39
ag102
ag231
ag39
ag231
ag39
ag231
ag39
ag231
ag39
ag231
ag39
ag231
ag39
ag39
ag39
ag231
ag39
ag231
ag39
ag231
ag39
ag231
ag39
ag231
ag39
ag231
ag39
ag231
ag39
ag231
ag39
ag231
ag39
ag231
ag37
ag231
ag39
ag231
ag39
ag231
ag231
ag231
ag39
ag231
ag231
ag231
ag39
ag231
ag39
ag39
ag102
ag231
ag102
ag39
ag102
ag39
ag39
ag39
ag102
ag39
ag39
ag231
ag102
ag231
ag102
ag231
ag39
ag39
ag102
ag231
ag102
ag231
ag39
ag231
ag39
ag39
ag39
ag231
ag39
ag231
ag39
ag231
ag39
ag231
ag39
ag231
ag39
ag231
ag39
ag231
ag39
ag231
ag39
ag231
ag39
ag231
ag39
ag231
ag39
ag231
ag39
ag231
ag39
ag231
ag39
ag231
ag39
ag231
ag39
ag231
ag39
ag231
ag39
ag102
ag39
ag102
ag39
ag102
ag231
ag102
ag231
ag39
ag39
ag102
ag231
ag39
ag39
ag39
ag39
ag102
ag39
ag102
ag231
ag102
ag231
ag39
ag231
ag102
ag231
ag39
ag231
ag39
ag231
ag39
ag231
ag39
ag39
ag39
ag102
ag39
ag231
ag39
ag231
ag39
ag231
ag39
ag39
ag39
ag231
ag39
ag231
ag39
ag231
ag231
ag231
ag39
ag231
ag39
ag231
ag39
ag231
ag39
ag231
ag39
ag231
ag39
ag231
aa(lp539
g166
ag39
ag102
ag39
ag102
ag39
ag102
ag39
ag102
ag39
ag39
ag231
ag39
ag39
ag39
ag39
ag102
ag39
ag39
ag231
ag39
ag39
ag39
ag231
ag39
ag231
ag39
ag231
ag39
ag231
ag39
ag231
ag39
ag231
ag39
ag231
ag39
ag231
ag39
ag231
ag39
ag231
ag39
ag231
ag39
ag231
ag39
ag231
ag39
ag231
ag39
ag231
ag39
ag231
ag39
ag231
ag39
ag231
ag39
ag231
ag39
ag231
ag39
ag231
ag231
ag102
ag39
ag102
ag39
ag102
ag231
ag102
ag39
ag102
ag39
ag39
ag39
ag39
ag39
ag39
ag39
ag39
ag39
ag39
ag39
ag102
ag231
ag39
ag39
ag39
ag39
ag39
ag231
ag39
ag231
ag39
ag231
ag39
ag39
ag39
ag231
ag39
ag231
ag39
ag231
ag39
ag39
ag39
ag231
ag39
ag39
ag39
ag231
ag39
ag231
ag39
ag231
ag39
ag231
ag39
ag231
ag39
ag231
ag39
ag231
ag39
ag231
ag39
ag231
ag102
ag231
ag102
ag39
ag102
ag39
ag102
ag39
ag102
ag39
ag102
ag39
ag39
ag39
ag102
ag39
ag39
ag231
ag39
ag231
ag39
ag231
ag39
ag231
ag39
ag39
ag39
ag231
ag39
ag231
ag39
ag231
ag39
ag102
ag39
ag231
ag39
ag231
ag39
ag231
ag39
ag231
ag39
ag231
ag39
ag231
ag39
ag231
ag37
ag231
ag39
ag231
ag39
ag231
ag39
ag231
ag39
ag231
ag39
ag231
ag39
ag231
ag39
ag166
ag39
ag102
ag39
ag102
ag39
ag102
ag39
ag102
ag231
ag39
ag231
ag39
ag39
ag39
ag231
ag39
ag231
ag39
ag231
ag39
ag231
ag39
ag231
ag102
ag231
ag39
ag39
ag39
ag231
ag39
ag231
ag39
ag231
ag39
ag231
ag39
ag231
ag39
ag231
ag39
ag231
ag39
ag231
ag39
ag231
ag39
ag39
ag39
ag231
ag39
ag231
ag39
ag231
ag39
ag231
ag39
ag231
ag39
ag231
ag39
ag231
ag231
ag231
aa(lp540
g166
ag39
ag102
ag39
ag102
ag39
ag102
ag231
ag102
ag231
ag102
ag231
ag102
ag39
ag39
ag39
ag102
ag231
ag39
ag231
ag39
ag231
ag39
ag231
ag102
ag231
ag39
ag231
ag39
ag231
ag39
ag231
ag39
ag231
ag39
ag231
ag39
ag231
ag39
ag231
ag39
ag231
ag39
ag231
ag39
ag231
ag39
ag231
ag37
ag231
ag39
ag231
ag39
ag231
ag39
ag231
ag39
ag231
ag39
ag231
ag39
ag231
ag39
ag231
ag39
ag102
ag39
ag102
ag39
ag102
ag39
ag102
ag39
ag102
ag39
ag102
ag39
ag39
ag231
ag39
ag39
ag39
ag231
ag39
ag231
ag39
ag231
ag39
ag39
ag39
ag231
ag39
ag231
ag39
ag231
ag39
ag102
ag39
ag231
ag39
ag231
ag39
ag231
ag39
ag231
ag39
ag231
ag39
ag231
ag39
ag231
ag39
ag231
ag39
ag231
ag39
ag231
ag39
ag231
ag39
ag231
ag39
ag231
ag39
ag231
ag39
ag231
ag231
ag39
ag102
ag39
ag102
ag39
ag102
ag39
ag102
ag39
ag102
ag39
ag102
ag39
ag102
ag39
ag39
ag39
ag39
ag231
ag39
ag231
ag39
ag231
ag39
ag39
ag39
ag231
ag39
ag231
ag39
ag231
ag39
ag39
ag39
ag231
ag39
ag231
ag39
ag231
ag39
ag231
ag39
ag231
ag39
ag231
ag39
ag231
ag39
ag39
ag39
ag231
ag39
ag231
ag39
ag231
ag39
ag231
ag39
ag231
ag39
ag231
ag39
ag231
ag39
ag166
ag231
ag102
ag39
ag102
ag39
ag102
ag39
ag102
ag231
ag102
ag231
ag102
ag231
ag39
ag231
ag39
ag39
ag39
ag231
ag39
ag231
ag39
ag231
ag39
ag231
ag39
ag231
ag39
ag231
ag39
ag231
ag39
ag231
ag39
ag231
ag39
ag231
ag39
ag231
ag39
ag231
ag39
ag231
ag39
ag231
ag39
ag231
ag39
ag231
ag39
ag231
ag39
ag231
ag39
ag231
ag39
ag231
ag39
ag231
ag39
ag231
ag39
ag231
aassI16
(dp541
I1000
(F5075270.0
I5203256
F99292.0
tp542
sI100
(F5080474.0
I5203256
F99292.0
tp543
sg5
(lp544
I202
aI128
aI319
aI382
aI786
aI408
aI221
aI248
aI63
aI572
aI288
aI139
aI463
aI1051
aI614
aI620
asI20
(F5154824.0
I5203256
F99292.0
tp545
sg8
(lp546
(lp547
g11
ag12
ag13
ag14
ag15
ag16
ag17
ag18
ag19
ag20
ag21
ag22
ag23
ag24
ag25
ag26
ag27
ag28
ag29
ag30
ag31
ag32
ag33
ag34
ag35
ag36
ag37
ag38
ag39
ag40
ag41
ag42
ag43
ag44
ag45
ag46
ag47
ag48
ag49
ag50
ag51
ag52
ag53
ag54
ag55
ag56
ag57
ag58
ag59
ag60
ag61
ag62
ag63
ag64
ag65
ag66
ag67
ag68
ag69
ag70
ag71
ag72
ag73
ag74
ag75
ag76
ag77
ag78
ag79
ag80
ag81
ag82
ag83
ag84
ag85
ag86
ag87
ag88
ag89
ag90
ag91
ag92
ag93
ag94
ag95
ag96
ag97
ag98
ag99
ag100
ag101
ag102
ag103
ag104
ag105
ag106
ag107
ag108
ag109
ag110
ag111
ag112
ag113
ag114
ag115
ag116
ag117
ag118
ag119
ag120
ag121
ag122
ag123
ag124
ag125
ag126
ag127
ag128
ag129
ag130
ag131
ag132
ag133
ag134
ag135
ag136
ag137
ag138
ag139
ag140
ag141
ag142
ag143
ag144
ag145
ag146
ag147
ag148
ag149
ag150
ag151
ag152
ag153
ag154
ag155
ag156
ag157
ag158
ag159
ag160
ag161
ag162
ag163
ag164
ag165
ag166
ag167
ag168
ag169
ag170
ag171
ag172
ag173
ag174
ag175
ag176
ag177
ag178
ag179
ag180
ag181
ag182
ag183
ag184
ag185
ag186
ag187
ag188
ag189
ag190
ag191
ag192
ag193
ag194
ag195
ag196
ag197
ag198
ag199
ag200
ag201
ag202
ag203
ag204
ag205
ag206
ag207
ag208
ag209
ag210
ag211
ag212
ag213
ag214
ag215
ag216
ag217
ag218
ag219
ag220
ag221
ag222
ag223
ag224
ag225
ag226
ag227
ag228
ag229
ag230
ag231
ag232
ag233
ag234
ag235
ag236
ag237
ag238
ag239
ag240
ag241
ag242
ag243
ag244
ag245
ag246
ag247
ag248
ag249
ag250
ag251
ag252
ag253
ag254
ag255
ag256
ag257
ag258
ag259
ag260
ag261
ag262
ag263
ag264
ag265
ag266
aa(lp548
g102
ag39
ag102
ag39
ag102
ag39
ag102
ag231
ag102
ag231
ag102
ag231
ag102
ag39
ag102
ag231
ag102
ag39
ag39
ag231
ag39
ag231
ag39
ag231
ag39
ag39
ag39
ag39
ag39
ag231
ag39
ag231
ag39
ag102
ag39
ag231
ag39
ag39
ag39
ag231
ag39
ag231
ag39
ag231
ag39
ag231
ag39
ag231
ag39
ag231
ag39
ag39
ag231
ag231
ag39
ag231
ag39
ag231
ag39
ag231
ag39
ag231
ag39
ag231
ag231
ag102
ag39
ag102
ag39
ag102
ag39
ag102
ag231
ag102
ag39
ag39
ag231
ag39
ag231
ag39
ag39
ag39
ag231
ag39
ag39
ag39
ag39
ag39
ag231
ag39
ag231
ag39
ag231
ag39
ag231
ag39
ag231
ag39
ag231
ag39
ag231
ag39
ag231
ag39
ag231
ag39
ag231
ag39
ag231
ag39
ag231
ag39
ag231
ag39
ag231
ag39
ag231
ag39
ag231
ag39
ag231
ag39
ag231
ag39
ag231
ag39
ag231
ag39
ag231
ag102
ag39
ag102
ag231
ag102
ag39
ag39
ag39
ag102
ag231
ag102
ag231
ag102
ag39
ag102
ag231
ag102
ag231
ag39
ag231
ag39
ag231
ag39
ag39
ag39
ag231
ag39
ag231
ag39
ag231
ag39
ag39
ag39
ag39
ag39
ag231
ag39
ag231
ag39
ag231
ag39
ag231
ag39
ag231
ag39
ag231
ag39
ag231
ag39
ag231
ag39
ag231
ag39
ag39
ag39
ag231
ag39
ag231
ag39
ag231
ag39
ag231
ag39
ag166
ag39
ag102
ag39
ag102
ag231
ag102
ag39
ag102
ag39
ag102
ag39
ag102
ag231
ag39
ag231
ag39
ag39
ag39
ag231
ag102
ag231
ag39
ag231
ag39
ag39
ag39
ag231
ag39
ag231
ag39
ag231
ag39
ag39
ag39
ag231
ag39
ag231
ag39
ag39
ag39
ag231
ag39
ag231
ag39
ag231
ag39
ag231
ag37
ag231
ag39
ag231
ag39
ag231
ag39
ag231
ag39
ag231
ag39
ag231
ag231
ag231
ag39
ag231
aa(lp549
g102
ag39
ag102
ag39
ag102
ag39
ag102
ag231
ag102
ag231
ag102
ag231
ag102
ag39
ag39
ag231
ag39
ag231
ag39
ag39
ag39
ag231
ag39
ag231
ag102
ag231
ag39
ag231
ag39
ag231
ag39
ag231
ag39
ag231
ag39
ag231
ag231
ag231
ag39
ag231
ag39
ag231
ag39
ag231
ag39
ag231
ag39
ag231
ag229
ag231
ag39
ag231
ag39
ag231
ag39
ag231
ag39
ag231
ag39
ag231
ag39
ag231
ag231
ag231
ag39
ag102
ag39
ag102
ag39
ag102
ag231
ag102
ag39
ag39
ag39
ag39
ag231
ag102
ag231
ag39
ag39
ag39
ag39
ag39
ag231
ag39
ag231
ag39
ag39
ag39
ag39
ag39
ag231
ag39
ag39
ag39
ag37
ag39
ag231
ag39
ag231
ag231
ag231
ag39
ag39
ag39
ag231
ag39
ag231
ag39
ag231
ag39
ag231
ag39
ag231
ag231
ag231
ag39
ag231
ag231
ag39
ag39
ag231
ag39
ag231
ag39
ag39
ag39
ag231
ag102
ag231
ag102
ag231
ag39
ag231
ag102
ag231
ag102
ag39
ag102
ag39
ag102
ag39
ag39
ag231
ag39
ag39
ag39
ag39
ag102
ag39
ag39
ag231
ag39
ag39
ag39
ag231
ag39
ag231
ag39
ag231
ag39
ag39
ag39
ag231
ag39
aS'10'
p550
ag39
ag231
ag39
ag231
ag39
ag231
ag39
ag231
ag39
ag39
ag39
ag231
ag39
ag231
ag39
ag231
ag231
ag231
ag39
ag231
ag39
ag39
ag39
ag231
ag39
ag166
ag39
ag102
ag39
ag102
ag39
ag102
ag231
ag102
ag231
ag39
ag231
ag39
ag39
ag39
ag39
ag39
ag39
ag102
ag231
ag39
ag231
ag39
ag231
ag39
ag231
ag39
ag39
ag39
ag39
ag39
ag231
ag39
ag39
ag39
ag231
ag39
ag231
ag39
ag231
ag39
ag231
ag39
ag231
ag231
ag231
ag39
ag231
ag231
ag231
ag39
ag231
ag231
ag39
ag39
ag231
ag231
ag231
ag39
ag231
ag39
aS'10'
p551
ag39
ag231
aa(lp552
g100
ag231
ag166
ag231
ag102
ag39
ag102
ag231
ag102
ag231
ag102
ag39
ag102
ag231
ag39
ag231
ag39
ag231
ag39
ag231
ag39
ag231
ag39
ag231
ag39
ag231
ag39
ag231
ag39
ag231
ag39
ag231
ag39
ag231
ag39
ag231
ag39
ag231
ag39
ag231
ag39
ag231
ag39
ag231
ag39
ag231
ag39
ag231
ag39
ag231
ag39
ag231
ag231
ag231
ag231
ag231
ag231
ag231
ag39
ag231
ag39
ag231
ag39
ag231
ag39
ag166
ag39
ag102
ag231
ag102
ag231
ag102
ag231
ag102
ag231
ag39
ag231
ag102
ag231
ag39
ag231
ag39
ag39
ag39
ag231
ag39
ag231
ag39
ag231
ag39
ag231
ag39
ag39
ag39
ag231
ag39
ag231
ag39
ag231
ag39
ag231
ag39
ag231
ag39
ag231
ag39
ag231
ag39
ag231
ag39
ag231
ag39
ag231
ag39
ag231
ag231
ag231
ag231
ag231
ag39
ag231
ag39
ag231
ag39
ag231
ag39
ag231
ag39
ag39
ag166
ag231
ag102
ag231
ag102
ag231
ag102
ag231
ag102
ag231
ag39
ag39
ag102
ag231
ag39
ag231
ag39
ag231
ag39
ag231
ag39
ag231
ag39
ag231
ag39
ag231
ag39
ag231
ag39
ag231
ag39
ag231
ag39
ag231
ag39
ag231
ag39
ag231
ag39
ag231
ag39
ag231
ag39
ag231
ag39
ag231
ag39
ag231
ag39
ag231
ag39
ag231
ag231
ag231
ag39
ag231
ag39
ag231
ag39
ag231
ag39
ag231
ag231
ag166
ag39
ag102
ag39
ag102
ag231
ag102
ag231
ag102
ag231
ag102
ag231
ag102
ag231
ag39
ag39
ag39
ag231
ag39
ag231
ag39
ag231
ag39
ag231
ag39
ag231
ag39
ag231
ag39
ag231
ag39
ag231
ag39
ag231
ag39
ag231
ag39
ag231
ag39
ag231
ag39
ag231
ag39
ag231
ag39
ag231
ag39
ag231
ag39
ag231
ag231
ag231
ag39
ag231
ag39
ag231
ag231
ag231
ag39
ag231
ag231
ag231
ag231
ag231
aa(lp553
g166
ag39
ag102
ag39
ag102
ag231
ag102
ag39
ag102
ag231
ag102
ag231
ag39
ag39
ag39
ag39
ag102
ag231
ag102
ag231
ag39
ag39
ag39
ag39
ag102
ag231
ag39
ag231
ag39
ag231
ag39
ag231
ag39
ag231
ag39
ag231
ag39
ag231
ag39
ag231
ag39
ag231
ag39
ag231
ag39
ag231
ag39
ag231
ag37
ag231
ag39
ag231
ag39
ag231
ag39
ag231
ag39
ag231
ag39
ag231
ag39
ag231
ag39
ag231
ag39
ag102
ag39
ag102
ag39
ag102
ag39
ag102
ag39
ag102
ag231
ag102
ag231
ag39
ag231
ag39
ag231
ag39
ag39
ag39
ag231
ag39
ag231
ag39
ag39
ag39
ag231
ag39
ag231
ag39
ag231
ag39
ag102
ag39
ag231
ag39
ag231
ag39
ag231
ag39
ag231
ag39
ag231
ag39
ag231
ag39
ag231
ag39
ag231
ag39
ag231
ag39
ag231
ag39
ag231
ag39
ag231
ag39
ag39
ag39
ag231
ag39
ag231
ag231
ag39
ag102
ag39
ag102
ag39
ag102
ag39
ag102
ag39
ag102
ag39
ag102
ag39
ag39
ag39
ag39
ag39
ag102
ag231
ag39
ag231
ag39
ag231
ag39
ag39
ag39
ag231
ag39
ag231
ag39
ag231
ag39
ag39
ag39
ag231
ag39
ag231
ag39
ag231
ag39
ag231
ag39
ag231
ag39
ag231
ag39
ag231
ag39
ag39
ag39
ag231
ag39
ag231
ag39
ag231
ag39
ag231
ag39
ag231
ag39
ag231
ag39
ag231
ag39
ag102
ag231
ag102
ag39
ag102
ag39
ag102
ag39
ag102
ag231
ag102
ag39
ag39
ag39
ag39
ag39
ag39
ag231
ag102
ag231
ag39
ag231
ag39
ag231
ag39
ag39
ag39
ag231
ag39
ag231
ag39
ag231
ag39
ag231
ag39
ag39
ag39
ag231
ag39
ag231
ag39
ag231
ag39
ag231
ag39
ag231
ag39
ag231
ag39
ag231
ag39
ag231
ag39
ag231
ag39
ag231
ag231
ag231
ag39
ag231
ag39
ag231
ag39
ag231
aa(lp554
g229
ag39
ag102
ag39
ag102
ag39
ag102
ag39
ag102
ag39
ag102
ag39
ag102
ag231
ag102
ag231
ag102
ag231
ag102
ag231
ag39
ag231
ag39
ag231
ag39
ag39
ag39
ag231
ag39
ag231
ag39
ag39
ag39
ag231
ag39
ag231
ag39
ag231
ag39
ag231
ag39
ag231
ag39
ag231
ag39
ag231
ag39
ag231
ag39
ag231
ag39
ag231
ag39
ag231
ag39
ag231
ag39
ag231
ag39
ag231
ag39
ag231
ag39
ag231
ag39
ag102
ag39
ag102
ag39
ag102
ag231
ag102
ag39
ag102
ag231
ag102
ag39
ag102
ag39
ag102
ag39
ag102
ag231
ag102
ag231
ag39
ag231
ag39
ag39
ag39
ag231
ag39
ag231
ag39
ag231
ag39
ag231
ag39
ag231
ag39
ag231
ag39
ag231
ag39
ag231
ag39
ag231
ag39
ag231
ag39
ag231
ag39
ag231
ag39
ag231
ag39
ag231
ag39
ag231
ag39
ag231
ag39
ag231
ag39
ag231
ag39
ag231
ag39
ag231
ag102
ag39
ag102
ag39
ag102
ag39
ag102
ag39
ag102
ag39
ag102
ag231
ag102
ag39
ag102
ag231
ag39
ag231
ag39
ag39
ag39
ag39
ag39
ag39
ag39
ag231
ag39
ag231
ag39
ag231
ag39
ag39
ag39
ag231
ag39
ag231
ag39
ag231
ag39
ag231
ag39
ag231
ag39
ag231
ag39
ag231
ag39
ag231
ag39
ag231
ag39
ag231
ag39
ag231
ag39
ag231
ag39
ag231
ag39
ag231
ag39
ag231
ag39
ag166
ag39
ag102
ag39
ag102
ag231
ag102
ag231
ag102
ag39
ag102
ag39
ag102
ag231
ag102
ag39
ag102
ag231
ag39
ag39
ag39
ag231
ag39
ag39
ag102
ag231
ag39
ag231
ag39
ag231
ag39
ag39
ag39
ag39
ag39
ag39
ag39
ag231
ag39
ag231
ag39
ag231
ag39
ag231
ag39
ag231
ag39
ag231
ag39
ag231
ag39
ag231
ag39
ag231
ag39
ag231
ag39
ag231
ag39
ag231
ag39
ag231
ag39
ag231
aa(lp555
g166
ag231
ag102
ag39
ag102
ag39
ag102
ag231
ag102
ag231
ag39
ag231
ag102
ag39
ag39
ag39
ag102
ag231
ag102
ag39
ag39
ag231
ag39
ag231
ag102
ag231
ag39
ag231
ag39
ag231
ag39
ag231
ag39
ag231
ag39
ag231
ag39
ag231
ag39
ag231
ag39
ag231
ag39
ag231
ag39
ag231
ag39
ag231
ag37
ag231
ag39
ag231
ag39
ag231
ag39
ag231
ag39
ag231
ag39
ag231
ag39
ag231
ag39
ag231
ag39
ag102
ag231
ag102
ag231
ag102
ag39
ag102
ag39
ag102
ag39
ag39
ag39
ag39
ag231
ag39
ag39
ag39
ag231
ag39
ag39
ag39
ag231
ag39
ag39
ag39
ag231
ag39
ag39
ag39
ag231
ag39
ag102
ag39
ag231
ag39
ag231
ag39
ag231
ag39
ag231
ag39
ag231
ag39
ag231
ag39
ag231
ag39
ag231
ag39
ag231
ag39
ag231
ag39
ag231
ag39
ag231
ag39
ag231
ag39
ag231
ag39
ag231
ag231
ag231
ag102
ag39
ag102
ag39
ag102
ag39
ag102
ag39
ag102
ag39
ag102
ag39
ag102
ag39
ag39
ag231
ag39
ag231
ag39
ag231
ag39
ag231
ag39
ag39
ag39
ag231
ag39
ag231
ag39
ag39
ag39
ag102
ag39
ag231
ag39
ag231
ag39
ag231
ag39
ag231
ag39
ag231
ag39
ag231
ag39
ag231
ag39
ag231
ag39
ag231
ag39
ag231
ag39
ag231
ag39
ag39
ag39
ag231
ag39
ag231
ag39
ag231
ag39
ag166
ag231
ag102
ag231
ag102
ag39
ag102
ag39
ag102
ag231
ag102
ag231
ag102
ag231
ag39
ag231
ag39
ag39
ag39
ag39
ag39
ag231
ag39
ag231
ag39
ag231
ag39
ag231
ag39
ag231
ag39
ag231
ag39
ag39
ag39
ag231
ag39
ag231
ag39
ag231
ag39
ag231
ag39
ag231
ag39
ag231
ag39
ag231
ag39
ag231
ag39
ag231
ag39
ag231
ag39
ag231
ag39
ag231
ag39
ag231
ag39
ag231
ag39
ag231
aa(lp556
g166
ag39
ag102
ag231
ag102
ag39
ag102
ag39
ag102
ag231
ag102
ag39
ag102
ag231
ag102
ag39
ag39
ag39
ag39
ag39
ag39
ag231
ag39
ag231
ag39
ag231
ag39
ag231
ag39
ag231
ag39
ag39
ag39
ag231
ag39
ag231
ag39
ag231
ag39
ag39
ag39
ag39
ag39
ag39
ag39
ag231
ag39
ag231
ag39
ag231
ag39
ag231
ag39
ag231
ag231
ag231
ag39
ag231
ag231
ag231
ag39
ag231
ag231
ag231
ag39
ag102
ag39
ag102
ag39
ag102
ag39
ag102
ag231
ag39
ag231
ag102
ag39
ag39
ag231
ag102
ag39
ag102
ag231
ag39
ag39
ag39
ag231
ag102
ag39
ag39
ag231
ag39
ag39
ag39
ag231
ag39
ag231
ag39
ag231
ag39
ag231
ag39
ag231
ag39
ag231
ag39
ag231
ag39
ag231
ag39
ag231
ag37
ag231
ag39
ag231
ag39
ag231
ag39
ag231
ag39
ag231
ag231
ag231
ag39
ag231
ag39
ag231
ag39
ag39
ag102
ag231
ag102
ag39
ag102
ag39
ag102
ag231
ag102
ag39
ag102
ag39
ag102
ag39
ag102
ag39
ag39
ag231
ag39
ag231
ag39
ag231
ag39
ag231
ag39
ag231
ag39
ag231
ag39
ag231
ag39
ag231
ag39
ag231
ag39
ag231
ag39
ag231
ag39
ag231
ag39
ag231
ag39
ag231
ag39
ag231
ag39
ag231
ag39
ag231
ag39
ag231
ag39
ag231
ag39
ag231
ag39
ag231
ag231
ag231
ag231
ag231
ag39
ag166
ag39
ag102
ag39
ag102
ag231
ag102
ag39
ag102
ag231
ag39
ag231
ag102
ag231
ag39
ag39
ag39
ag39
ag39
ag231
ag39
ag39
ag39
ag39
ag39
ag231
ag39
ag231
ag39
ag231
ag39
ag39
ag39
ag231
ag39
ag231
ag39
ag231
ag39
ag231
ag39
ag231
ag39
ag231
ag39
ag231
ag39
ag231
ag39
ag231
ag39
ag231
ag39
ag231
ag39
ag231
ag39
ag231
ag39
ag231
ag39
ag231
ag39
ag39
aa(lp557
g166
ag39
ag102
ag231
ag102
ag39
ag102
ag39
ag102
ag231
ag102
ag39
ag39
ag39
ag39
ag231
ag102
ag39
ag102
ag39
ag39
ag231
ag39
ag231
ag39
ag231
ag39
ag231
ag39
ag231
ag39
ag231
ag39
ag231
ag39
ag231
ag39
ag231
ag39
ag231
ag39
ag231
ag231
ag231
ag39
ag231
ag39
ag231
ag39
ag231
ag39
ag231
ag39
ag231
ag39
ag231
ag39
ag231
ag39
ag39
ag39
ag231
ag39
ag231
ag39
ag102
ag39
ag102
ag231
ag102
ag39
ag102
ag39
ag102
ag39
ag39
ag39
ag102
ag39
ag102
ag231
ag39
ag231
ag102
ag231
ag39
ag231
ag39
ag231
ag39
ag231
ag39
ag39
ag39
ag231
ag39
ag39
ag39
ag231
ag39
ag231
ag39
ag231
ag39
ag231
ag39
ag231
ag39
ag231
ag39
ag231
ag39
ag231
ag37
ag231
ag39
ag231
ag39
ag231
ag231
ag231
ag39
ag231
ag231
ag231
ag39
ag231
ag39
ag39
ag102
ag231
ag102
ag231
ag102
ag39
ag39
ag39
ag102
ag39
ag39
ag231
ag102
ag39
ag102
ag231
ag39
ag39
ag102
ag231
ag39
ag231
ag39
ag231
ag39
ag39
ag39
ag231
ag39
ag231
ag39
ag231
ag39
ag231
ag39
ag231
ag39
ag231
ag39
ag231
ag39
ag231
ag39
ag231
ag39
ag231
ag39
ag231
ag39
ag231
ag39
ag231
ag39
ag231
ag39
ag231
ag39
ag231
ag231
ag231
ag39
ag231
ag39
ag102
ag39
ag102
ag39
ag102
ag231
ag102
ag39
ag39
ag39
ag102
ag231
ag39
ag39
ag39
ag231
ag102
ag39
ag102
ag231
ag102
ag231
ag39
ag231
ag102
ag231
ag39
ag231
ag39
ag231
ag39
ag231
ag39
ag39
ag39
ag102
ag39
ag231
ag39
ag231
ag39
ag231
ag39
ag39
ag39
ag231
ag39
ag231
ag39
ag231
ag231
ag231
ag39
ag231
ag39
ag231
ag39
ag231
ag39
ag231
ag39
ag231
ag39
ag231
aa(lp558
g166
ag39
ag102
ag231
ag102
ag39
ag39
ag39
ag102
ag231
ag102
ag231
ag39
ag231
ag102
ag39
ag102
ag231
ag39
ag39
ag39
ag39
ag39
ag231
ag39
ag231
ag39
ag231
ag39
ag231
ag39
ag231
ag39
ag231
ag39
ag231
ag39
ag231
ag231
ag231
ag39
ag231
ag39
ag39
ag39
aS'10'
p559
ag39
aS'10'
p560
ag39
ag231
ag39
ag231
ag39
ag231
ag231
ag231
ag231
aS'10'
p561
ag231
ag231
ag39
ag231
ag39
ag231
ag39
ag102
ag39
ag102
ag231
ag102
ag39
ag102
ag231
ag39
ag231
ag102
ag39
ag102
ag231
ag102
ag231
ag102
ag39
ag39
ag231
ag102
ag231
ag39
ag39
ag39
ag39
ag39
ag231
ag39
ag39
ag39
ag231
ag39
ag231
ag39
ag39
ag39
ag39
ag39
ag231
ag39
ag39
ag39
ag231
ag39
ag39
ag39
ag231
ag39
ag231
ag39
ag231
ag231
ag231
ag231
ag231
ag231
ag39
ag39
ag231
ag39
ag231
ag231
aS'10'
p562
ag102
ag231
ag102
ag39
ag102
ag231
ag39
ag231
ag102
ag231
ag39
ag231
ag102
ag231
ag39
ag231
ag102
aS'10'
p563
ag39
ag39
ag39
ag39
ag39
ag231
ag39
ag39
ag39
aS'10'
p564
ag39
ag39
ag39
aS'10'
p565
ag39
ag37
ag231
ag231
ag39
ag231
ag39
ag231
ag39
ag231
ag39
ag39
ag39
ag231
ag39
ag231
ag229
ag231
ag39
ag39
ag39
ag231
ag39
ag39
ag39
ag231
ag231
ag231
ag231
ag231
ag39
ag166
ag39
ag102
ag231
ag102
ag39
ag102
ag231
ag102
ag231
ag102
ag231
ag39
ag231
ag39
ag231
ag39
ag39
ag39
ag39
ag39
ag231
ag39
ag39
ag39
ag231
ag39
ag231
ag39
ag231
ag39
ag39
ag39
ag231
ag39
ag39
ag39
ag231
ag39
ag231
ag39
ag39
ag231
ag39
ag39
aS'10'
p566
ag39
ag231
ag231
ag39
ag39
ag39
ag231
ag231
ag39
aS'10'
p567
ag231
aS'10'
p568
ag231
ag39
ag39
ag231
ag39
ag231
aa(lp569
g166
ag39
ag166
ag39
ag102
ag39
ag102
ag231
ag102
ag39
ag102
ag231
ag102
ag231
ag102
ag231
ag102
ag231
ag39
ag231
ag39
ag231
ag39
ag231
ag102
ag231
ag39
ag231
ag39
ag231
ag39
ag231
ag39
ag231
ag39
ag39
ag39
ag231
ag39
ag231
ag39
ag231
ag39
ag231
ag39
ag231
ag39
ag231
ag39
ag231
ag39
ag231
ag39
ag231
ag39
ag231
ag39
ag231
ag39
ag231
ag231
ag231
ag39
ag231
ag39
ag166
ag231
ag102
ag231
ag102
ag231
ag102
ag39
ag102
ag39
ag102
ag231
ag39
ag231
ag39
ag39
ag39
ag231
ag39
ag231
ag39
ag39
ag39
ag231
ag39
ag231
ag39
ag231
ag39
ag231
ag39
ag231
ag39
ag231
ag39
ag231
ag39
ag231
ag39
ag231
ag39
ag231
ag39
ag231
ag39
ag231
ag39
ag231
ag39
ag231
ag39
ag231
ag39
ag231
ag39
ag231
ag39
ag231
ag39
ag231
ag39
ag231
ag39
ag39
ag102
ag39
ag166
ag231
ag102
ag39
ag102
ag39
ag102
ag231
ag102
ag39
ag102
ag39
ag39
ag231
ag39
ag39
ag102
ag231
ag39
ag39
ag39
ag39
ag39
ag231
ag39
ag231
ag39
ag231
ag39
ag39
ag39
ag231
ag39
ag231
ag39
ag231
ag39
ag231
ag39
ag231
ag39
ag231
ag39
ag231
ag39
ag231
ag39
ag231
ag39
ag231
ag39
ag231
ag39
ag231
ag39
ag231
ag39
ag231
ag231
ag231
ag39
ag229
ag39
ag166
ag39
ag102
ag231
ag102
ag231
ag102
ag231
ag102
ag39
ag102
ag231
ag102
ag231
ag102
ag39
ag102
ag39
ag39
ag231
ag39
ag231
ag39
ag39
ag39
ag231
ag39
ag231
ag39
ag231
ag102
ag39
ag39
ag231
ag39
ag231
ag39
ag231
ag39
ag231
ag39
ag39
ag39
ag231
ag39
ag231
ag39
ag231
ag39
ag231
ag39
ag231
ag39
ag231
ag39
ag231
ag39
ag231
ag39
ag231
ag39
ag231
aa(lp570
g166
ag39
ag102
ag231
ag102
ag39
ag102
ag39
ag102
ag231
ag39
ag231
ag102
ag39
ag102
ag39
ag102
ag231
ag39
ag39
ag39
ag39
ag39
ag39
ag39
ag39
ag39
ag39
ag39
ag39
ag39
ag231
ag39
ag102
ag39
ag231
ag39
ag231
ag39
ag231
ag39
ag39
ag39
ag231
ag39
ag231
ag39
ag231
ag39
ag39
ag39
ag39
ag39
ag231
ag39
ag231
ag39
ag231
ag39
ag231
ag39
ag231
ag39
ag231
ag231
ag102
ag39
ag102
ag231
ag102
ag231
ag102
ag39
ag102
ag231
ag39
ag39
ag39
ag231
ag102
ag39
ag39
ag231
ag39
ag231
ag39
ag231
ag39
ag231
ag39
ag231
ag39
ag231
ag39
ag231
ag39
ag231
ag39
ag231
ag39
ag231
ag39
ag231
ag39
ag231
ag39
ag231
ag39
ag231
ag39
ag231
ag39
ag231
ag39
ag231
ag39
ag231
ag39
ag231
ag39
ag231
ag39
ag231
ag39
ag39
ag39
ag231
ag39
ag231
ag102
ag39
ag102
ag39
ag102
ag39
ag102
ag231
ag39
ag231
ag102
ag231
ag102
ag39
ag102
ag231
ag39
ag231
ag39
ag39
ag39
ag231
ag39
ag231
ag39
ag231
ag39
ag231
ag39
ag231
ag39
ag231
ag39
ag231
ag39
ag231
ag39
ag231
ag39
ag231
ag39
ag231
ag39
ag39
ag39
ag231
ag39
ag231
ag39
ag231
ag39
ag231
ag39
ag231
ag39
ag231
ag39
ag231
ag39
ag231
ag231
ag231
ag39
ag166
ag39
ag102
ag39
ag102
ag231
ag102
ag39
ag102
ag39
ag102
ag231
ag39
ag231
ag39
ag39
ag39
ag39
ag39
ag39
ag39
ag39
ag39
ag231
ag39
ag39
ag39
ag231
ag39
ag231
ag39
ag231
ag39
ag39
ag39
ag231
ag39
ag231
ag39
ag231
ag39
ag231
ag39
ag231
ag39
ag231
ag231
ag231
ag37
ag231
ag39
ag231
ag39
ag231
ag39
ag231
ag39
ag231
ag39
ag231
ag39
ag231
ag39
ag231
aa(lp571
g166
ag231
ag102
ag39
ag102
ag231
ag102
ag231
ag102
ag231
ag102
ag39
ag102
ag231
ag102
ag231
ag102
ag231
ag39
ag39
ag39
ag231
ag39
ag39
ag39
ag39
ag39
ag39
ag39
ag231
ag39
ag231
ag39
ag37
ag39
ag231
ag39
ag231
ag39
ag231
ag39
ag231
ag39
ag231
ag39
ag39
ag39
ag231
ag39
ag231
ag39
ag231
ag39
ag231
ag39
ag231
ag39
ag231
ag231
ag231
ag39
ag231
ag39
ag39
ag231
ag102
ag39
ag102
ag39
ag102
ag39
ag102
ag39
ag102
ag39
ag39
ag39
ag39
ag39
ag39
ag231
ag39
ag231
ag39
ag231
ag39
ag39
ag39
ag231
ag39
ag231
ag39
ag231
ag39
ag231
ag39
ag231
ag39
ag231
ag39
ag231
ag39
ag231
ag39
ag231
ag39
ag39
ag39
ag231
ag39
ag39
ag39
ag231
ag39
ag39
ag39
ag231
ag39
ag231
ag231
ag231
ag39
ag231
ag39
ag231
ag39
ag231
ag39
ag39
ag102
ag39
ag102
ag231
ag102
ag231
ag102
ag231
ag102
ag231
ag102
ag39
ag102
ag231
ag39
ag231
ag102
ag39
ag39
ag39
ag102
ag231
ag39
ag231
ag39
ag39
ag39
ag231
ag39
ag231
ag39
ag231
ag39
ag39
ag39
ag39
ag39
ag231
ag39
ag231
ag39
ag39
ag231
ag231
ag231
ag231
ag39
ag39
ag39
ag231
ag39
ag231
ag39
ag231
ag39
ag231
ag39
ag231
ag39
ag231
ag39
ag231
ag39
ag102
ag39
ag102
ag231
ag102
ag39
ag102
ag39
ag102
ag39
ag39
ag231
ag39
ag231
ag39
ag231
ag39
ag39
ag39
ag231
ag39
ag231
ag39
ag39
ag39
ag231
ag39
ag231
ag39
ag231
ag39
ag231
ag39
ag231
ag39
ag231
ag39
ag39
ag39
ag231
ag39
ag231
ag39
ag231
ag39
ag231
ag39
ag231
ag166
ag231
ag231
ag231
ag39
ag39
ag39
ag231
ag39
ag231
ag231
ag231
ag39
ag231
ag39
ag231
aa(lp572
g166
ag39
ag102
ag39
ag102
ag39
ag102
ag39
ag102
ag39
ag102
ag231
ag39
ag39
ag39
ag39
ag102
ag39
ag39
ag231
ag39
ag39
ag39
ag231
ag39
ag39
ag39
ag231
ag39
ag231
ag39
ag231
ag39
ag231
ag39
ag231
ag39
ag231
ag39
ag231
ag39
ag231
ag39
ag231
ag39
ag231
ag39
ag231
ag39
ag231
ag39
ag231
ag39
ag231
ag39
ag231
ag39
ag231
ag39
ag231
ag39
ag231
ag39
ag231
ag231
ag102
ag39
ag102
ag39
ag102
ag231
ag102
ag39
ag102
ag39
ag39
ag39
ag39
ag39
ag39
ag39
ag39
ag39
ag39
ag39
ag102
ag231
ag39
ag39
ag39
ag231
ag39
ag231
ag39
ag231
ag39
ag231
ag39
ag39
ag39
ag231
ag39
ag231
ag39
ag231
ag39
ag39
ag39
ag231
ag39
ag39
ag39
ag231
ag39
ag231
ag39
ag231
ag39
ag231
ag39
ag231
ag39
ag231
ag39
ag231
ag39
ag231
ag39
ag231
ag102
ag231
ag102
ag231
ag102
ag39
ag102
ag39
ag102
ag39
ag102
ag39
ag39
ag39
ag102
ag39
ag39
ag231
ag39
ag231
ag39
ag231
ag39
ag231
ag39
ag39
ag39
ag231
ag39
ag231
ag39
ag231
ag39
ag39
ag39
ag231
ag39
ag231
ag39
ag231
ag39
ag231
ag39
ag231
ag39
ag231
ag39
ag231
ag37
ag231
ag39
ag231
ag39
ag231
ag39
ag231
ag39
ag231
ag39
ag231
ag39
ag231
ag39
ag166
ag39
ag102
ag231
ag102
ag231
ag102
ag39
ag102
ag39
ag39
ag231
ag39
ag39
ag39
ag231
ag39
ag231
ag102
ag231
ag39
ag231
ag39
ag231
ag102
ag231
ag39
ag39
ag39
ag231
ag39
ag231
ag39
ag231
ag39
ag231
ag39
ag231
ag39
ag231
ag39
ag231
ag39
ag231
ag39
ag231
ag39
ag39
ag39
ag231
ag39
ag231
ag39
ag231
ag39
ag231
ag39
ag231
ag39
ag231
ag39
ag231
ag231
ag231
aa(lp573
g102
ag39
ag102
ag39
ag102
ag39
ag102
ag231
ag102
ag39
ag102
ag231
ag102
ag231
ag102
ag39
ag102
ag39
ag39
ag39
ag39
ag39
ag39
ag39
ag39
ag39
ag39
ag231
ag39
ag231
ag39
ag39
ag39
ag39
ag39
ag231
ag39
ag39
ag39
ag231
ag39
ag231
ag39
ag231
ag39
ag231
ag39
ag231
ag39
ag39
ag39
ag231
ag39
ag231
ag39
ag231
ag39
ag231
ag39
ag231
ag39
ag231
ag39
ag231
ag39
ag102
ag39
ag102
ag39
ag102
ag39
ag102
ag39
ag102
ag39
ag102
ag39
ag102
ag39
ag102
ag39
ag39
ag39
ag39
ag231
ag102
ag39
ag39
ag39
ag39
ag231
ag39
ag231
ag39
ag231
ag39
ag39
ag39
ag39
ag39
ag231
ag39
ag231
ag39
ag231
ag39
ag231
ag39
ag231
ag39
ag231
ag39
ag231
ag39
ag231
ag39
ag231
ag39
ag231
ag39
ag231
ag39
ag231
ag39
ag231
ag39
ag231
ag39
ag39
ag102
ag39
ag102
ag39
ag102
ag39
ag102
ag231
ag102
ag39
ag102
ag39
ag102
ag39
ag102
ag39
ag102
ag39
ag39
ag231
ag39
ag39
ag39
ag231
ag39
ag39
ag39
ag39
ag39
ag231
ag39
ag39
ag39
ag231
ag39
ag231
ag39
ag231
ag39
ag231
ag39
ag231
ag39
ag231
ag39
ag231
ag39
ag231
ag39
ag231
ag39
ag231
ag39
ag231
ag39
ag231
ag39
ag231
ag39
ag231
ag39
ag231
ag39
ag102
ag39
ag102
ag39
ag102
ag39
ag102
ag39
ag102
ag39
ag102
ag39
ag102
ag39
ag102
ag39
ag102
ag39
ag39
ag231
ag39
ag231
ag39
ag231
ag102
ag39
ag39
ag231
ag39
ag231
ag39
ag231
ag39
ag39
ag39
ag39
ag39
ag231
ag39
ag231
ag39
ag231
ag39
ag39
ag39
ag231
ag39
ag231
ag39
ag231
ag39
ag231
ag39
ag231
ag39
ag231
ag39
ag231
ag39
ag231
ag39
ag231
ag39
ag231
aa(lp574
g166
ag231
ag102
ag39
ag102
ag39
ag102
ag39
ag102
ag39
ag102
ag39
ag102
ag231
ag102
ag231
ag102
ag231
ag102
ag231
ag39
ag39
ag39
ag231
ag39
ag231
ag39
ag231
ag39
ag231
ag39
ag231
ag39
ag231
ag39
ag231
ag39
ag231
ag39
ag231
ag39
ag231
ag39
ag231
ag39
ag231
ag39
ag231
ag39
ag231
ag39
ag231
ag39
ag231
ag39
ag231
ag39
ag231
ag39
ag231
ag39
ag231
ag39
ag231
ag39
ag229
ag39
ag102
ag231
ag102
ag39
ag102
ag39
ag102
ag231
ag102
ag39
ag102
ag39
ag39
ag39
ag39
ag39
ag39
ag231
ag39
ag39
ag39
ag231
ag39
ag231
ag39
ag231
ag39
ag231
ag39
ag39
ag39
ag231
ag39
ag231
ag39
ag39
ag39
ag231
ag39
ag231
ag39
ag231
ag39
ag231
ag39
ag231
ag39
ag231
ag39
ag231
ag39
ag231
ag39
ag231
ag39
ag231
ag39
ag231
ag39
ag231
ag39
ag231
ag166
ag39
ag166
ag39
ag102
ag39
ag102
ag231
ag102
ag39
ag102
ag39
ag102
ag231
ag39
ag231
ag39
ag231
ag39
ag231
ag39
ag231
ag39
ag231
ag39
ag231
ag39
ag231
ag39
ag231
ag39
ag231
ag39
ag231
ag39
ag231
ag39
ag231
ag39
ag231
ag102
ag231
ag39
ag231
ag39
ag39
ag39
ag231
ag39
ag231
ag39
ag231
ag39
ag231
ag39
ag231
ag39
ag231
ag39
ag231
ag39
ag231
ag39
ag166
ag39
ag102
ag39
ag102
ag39
ag102
ag39
ag102
ag39
ag102
ag231
ag102
ag231
ag102
ag39
ag102
ag231
ag39
ag231
ag102
ag231
ag39
ag231
ag39
ag231
ag39
ag231
ag39
ag231
ag39
ag39
ag39
ag231
ag39
ag231
ag39
ag231
ag39
ag231
ag39
ag231
ag39
ag231
ag39
ag231
ag39
ag231
ag39
ag231
ag39
ag231
ag39
ag231
ag39
ag231
ag39
ag231
ag39
ag231
ag39
ag231
ag39
ag231
aa(lp575
g37
ag39
ag102
ag39
ag102
ag231
ag102
ag39
ag102
ag39
ag102
ag231
ag102
ag231
ag39
ag39
ag102
ag231
ag39
ag231
ag39
ag231
ag39
ag39
ag39
ag231
ag39
ag231
ag39
ag39
ag39
ag39
ag39
ag231
ag39
ag231
ag39
ag231
ag39
ag231
ag39
ag231
ag39
ag231
ag39
ag231
ag39
ag231
ag39
ag231
ag39
ag231
ag39
ag231
ag39
ag231
ag39
ag231
ag39
ag231
ag39
ag231
ag39
ag231
ag39
ag166
ag39
ag102
ag231
ag102
ag39
ag102
ag39
ag102
ag39
ag102
ag231
ag102
ag231
ag102
ag231
ag102
ag231
ag39
ag231
ag39
ag231
ag39
ag231
ag39
ag231
ag39
ag231
ag39
ag231
ag39
ag39
ag39
ag39
ag39
ag231
ag39
ag231
ag39
ag231
ag39
ag231
ag39
ag231
ag39
ag231
ag39
ag231
ag39
ag231
ag39
ag231
ag39
ag231
ag39
ag231
ag39
ag231
ag39
ag231
ag39
ag231
ag39
ag39
ag102
ag231
ag102
ag39
ag102
ag39
ag102
ag39
ag102
ag39
ag102
ag39
ag102
ag231
ag39
ag39
ag39
ag39
ag39
ag231
ag39
ag231
ag39
ag39
ag39
ag231
ag39
ag231
ag39
ag231
ag39
ag39
ag39
ag231
ag39
ag231
ag39
ag231
ag39
ag231
ag39
ag231
ag39
ag231
ag39
ag231
ag39
ag231
ag39
ag231
ag39
ag231
ag39
ag231
ag39
ag231
ag39
ag231
ag39
ag231
ag39
ag231
ag39
ag166
ag39
ag102
ag39
ag102
ag231
ag102
ag39
ag102
ag39
ag39
ag39
ag39
ag231
ag39
ag39
ag102
ag231
ag39
ag39
ag39
ag231
ag39
ag231
ag39
ag231
ag39
ag231
ag39
ag231
ag39
ag231
ag39
ag231
ag39
ag231
ag39
ag231
ag39
ag231
ag39
ag231
ag39
ag231
ag39
ag231
ag39
ag231
ag39
ag231
ag39
ag231
ag39
ag231
ag39
ag231
ag39
ag231
ag39
ag231
ag39
ag231
ag39
ag231
aassI2
(dp576
I1000
(F5102866.0
I5203256
F12400.0
tp577
sI100
(F5106725.0
I5203256
F12400.0
tp578
sg5
(lp579
I5406
aI1098
asI20
(F5125079.0
I5203256
F12400.0
tp580
sg8
(lp581
(lp582
g11
ag12
ag13
ag14
ag15
ag16
ag17
ag18
ag19
ag20
ag21
ag22
ag23
ag24
ag25
ag26
ag27
ag28
ag29
ag30
ag31
ag32
ag33
ag34
ag35
ag36
ag37
ag38
ag39
ag40
ag41
ag42
ag43
ag44
ag45
ag46
ag47
ag48
ag49
ag50
ag51
ag52
ag53
ag54
ag55
ag56
ag57
ag58
ag59
ag60
ag61
ag62
ag63
ag64
ag65
ag66
ag67
ag68
ag69
ag70
ag71
ag72
ag73
ag74
ag75
ag76
ag77
ag78
ag79
ag80
ag81
ag82
ag83
ag84
ag85
ag86
ag87
ag88
ag89
ag90
ag91
ag92
ag93
ag94
ag95
ag96
ag97
ag98
ag99
ag100
ag101
ag102
ag103
ag104
ag105
ag106
ag107
ag108
ag109
ag110
ag111
ag112
ag113
ag114
ag115
ag116
ag117
ag118
ag119
ag120
ag121
ag122
ag123
ag124
ag125
ag126
ag127
ag128
ag129
ag130
ag131
ag132
ag133
ag134
ag135
ag136
ag137
ag138
ag139
ag140
ag141
ag142
ag143
ag144
ag145
ag146
ag147
ag148
ag149
ag150
ag151
ag152
ag153
ag154
ag155
ag156
ag157
ag158
ag159
ag160
ag161
ag162
ag163
ag164
ag165
ag166
ag167
ag168
ag169
ag170
ag171
ag172
ag173
ag174
ag175
ag176
ag177
ag178
ag179
ag180
ag181
ag182
ag183
ag184
ag185
ag186
ag187
ag188
ag189
ag190
ag191
ag192
ag193
ag194
ag195
ag196
ag197
ag198
ag199
ag200
ag201
ag202
ag203
ag204
ag205
ag206
ag207
ag208
ag209
ag210
ag211
ag212
ag213
ag214
ag215
ag216
ag217
ag218
ag219
ag220
ag221
ag222
ag223
ag224
ag225
ag226
ag227
ag228
ag229
ag230
ag231
ag232
ag233
ag234
ag235
ag236
ag237
ag238
ag239
ag240
ag241
ag242
ag243
ag244
ag245
ag246
ag247
ag248
ag249
ag250
ag251
ag252
ag253
ag254
ag255
ag256
ag257
ag258
ag259
ag260
ag261
ag262
ag263
ag264
ag265
ag266
aa(lp583
g166
ag39
ag102
ag39
ag102
ag39
ag102
ag39
ag102
ag39
ag102
ag231
ag102
ag231
ag102
ag39
ag102
ag39
ag39
ag231
ag39
ag231
ag39
ag231
ag39
ag231
ag39
ag231
ag39
ag231
ag39
ag231
ag39
ag39
ag39
ag231
ag39
ag231
ag39
ag231
ag39
ag231
ag39
ag231
ag39
ag231
ag39
ag231
ag166
ag231
ag39
ag231
ag39
ag231
ag39
ag231
ag39
ag231
ag39
ag231
ag39
ag231
ag39
ag231
ag39
ag166
ag39
ag102
ag39
ag102
ag39
ag102
ag39
ag102
ag39
ag102
ag39
ag102
ag39
ag102
ag39
ag39
ag231
ag39
ag231
ag39
ag231
ag39
ag39
ag39
ag231
ag39
ag231
ag39
ag231
ag39
ag39
ag39
ag39
ag39
ag231
ag39
ag231
ag39
ag231
ag39
ag231
ag39
ag231
ag39
ag231
ag102
ag231
ag102
ag231
ag39
ag231
ag39
ag231
ag39
ag231
ag39
ag231
ag39
ag231
ag39
ag231
ag39
ag39
ag102
ag39
ag102
ag39
ag102
ag39
ag102
ag39
ag102
ag39
ag102
ag39
ag102
ag39
ag39
ag231
ag39
ag39
ag39
ag231
ag39
ag231
ag39
ag231
ag39
ag231
ag39
ag231
ag39
ag231
ag39
ag39
ag39
ag39
ag39
ag231
ag39
ag231
ag39
ag231
ag39
ag231
ag39
ag231
ag39
ag231
ag39
ag231
ag102
ag231
ag39
ag231
ag39
ag231
ag39
ag231
ag39
ag231
ag39
ag231
ag39
ag231
ag39
ag166
ag39
ag102
ag39
ag102
ag39
ag102
ag39
ag102
ag39
ag102
ag39
ag102
ag231
ag39
ag39
ag39
ag39
ag39
ag231
ag39
ag231
ag39
ag231
ag39
ag231
ag39
ag231
ag39
ag231
ag39
ag231
ag39
ag231
ag39
ag39
ag39
ag231
ag39
ag231
ag39
ag231
ag39
ag231
ag39
ag231
ag39
ag231
ag102
ag231
ag39
ag231
ag39
ag231
ag39
ag231
ag39
ag231
ag39
ag231
ag39
ag231
ag39
ag231
aa(lp584
g37
ag39
ag102
ag39
ag102
ag39
ag102
ag39
ag102
ag39
ag102
ag231
ag102
ag231
ag39
ag39
ag102
ag231
ag102
ag231
ag39
ag231
ag39
ag231
ag39
ag231
ag39
ag231
ag39
ag39
ag39
ag231
ag39
ag231
ag39
ag231
ag39
ag231
ag39
ag231
ag39
ag231
ag39
ag231
ag39
ag231
ag39
ag231
ag39
ag231
ag39
ag231
ag39
ag231
ag39
ag231
ag39
ag231
ag39
ag231
ag39
ag231
ag39
ag231
ag39
ag166
ag39
ag102
ag231
ag102
ag39
ag102
ag231
ag102
ag39
ag102
ag231
ag102
ag231
ag102
ag231
ag102
ag39
ag39
ag231
ag39
ag231
ag39
ag231
ag39
ag231
ag39
ag231
ag39
ag231
ag39
ag231
ag39
ag231
ag39
ag231
ag39
ag231
ag39
ag231
ag39
ag231
ag39
ag231
ag39
ag231
ag39
ag231
ag39
ag231
ag39
ag231
ag39
ag231
ag39
ag231
ag39
ag231
ag39
ag231
ag39
ag231
ag39
ag39
ag102
ag231
ag102
ag231
ag102
ag231
ag102
ag39
ag102
ag39
ag102
ag39
ag102
ag231
ag39
ag231
ag39
ag231
ag39
ag231
ag39
ag39
ag39
ag39
ag39
ag231
ag39
ag231
ag39
ag231
ag39
ag231
ag39
ag231
ag39
ag231
ag39
ag231
ag39
ag231
ag39
ag231
ag39
ag231
ag39
ag231
ag39
ag231
ag39
ag231
ag39
ag231
ag39
ag231
ag39
ag231
ag39
ag231
ag39
ag231
ag39
ag231
ag39
ag166
ag39
ag102
ag39
ag102
ag231
ag102
ag39
ag102
ag39
ag102
ag39
ag102
ag39
ag39
ag39
ag102
ag231
ag39
ag39
ag39
ag231
ag39
ag231
ag39
ag231
ag39
ag231
ag39
ag231
ag39
ag231
ag39
ag231
ag39
ag231
ag39
ag231
ag39
ag231
ag39
ag231
ag39
ag231
ag39
ag231
ag39
ag231
ag39
ag231
ag39
ag231
ag39
ag231
ag39
ag231
ag39
ag231
ag39
ag231
ag39
ag231
ag39
ag231
aassI4
(dp585
I1000
(F5089464.0
I5203256
F24805.0
tp586
sI100
(F5095447.0
I5203256
F24805.0
tp587
sg5
(lp588
I497
aI747
aI1083
aI4177
asI20
(F5130603.0
I5203256
F24805.0
tp589
sg8
(lp590
(lp591
g11
ag12
ag13
ag14
ag15
ag16
ag17
ag18
ag19
ag20
ag21
ag22
ag23
ag24
ag25
ag26
ag27
ag28
ag29
ag30
ag31
ag32
ag33
ag34
ag35
ag36
ag37
ag38
ag39
ag40
ag41
ag42
ag43
ag44
ag45
ag46
ag47
ag48
ag49
ag50
ag51
ag52
ag53
ag54
ag55
ag56
ag57
ag58
ag59
ag60
ag61
ag62
ag63
ag64
ag65
ag66
ag67
ag68
ag69
ag70
ag71
ag72
ag73
ag74
ag75
ag76
ag77
ag78
ag79
ag80
ag81
ag82
ag83
ag84
ag85
ag86
ag87
ag88
ag89
ag90
ag91
ag92
ag93
ag94
ag95
ag96
ag97
ag98
ag99
ag100
ag101
ag102
ag103
ag104
ag105
ag106
ag107
ag108
ag109
ag110
ag111
ag112
ag113
ag114
ag115
ag116
ag117
ag118
ag119
ag120
ag121
ag122
ag123
ag124
ag125
ag126
ag127
ag128
ag129
ag130
ag131
ag132
ag133
ag134
ag135
ag136
ag137
ag138
ag139
ag140
ag141
ag142
ag143
ag144
ag145
ag146
ag147
ag148
ag149
ag150
ag151
ag152
ag153
ag154
ag155
ag156
ag157
ag158
ag159
ag160
ag161
ag162
ag163
ag164
ag165
ag166
ag167
ag168
ag169
ag170
ag171
ag172
ag173
ag174
ag175
ag176
ag177
ag178
ag179
ag180
ag181
ag182
ag183
ag184
ag185
ag186
ag187
ag188
ag189
ag190
ag191
ag192
ag193
ag194
ag195
ag196
ag197
ag198
ag199
ag200
ag201
ag202
ag203
ag204
ag205
ag206
ag207
ag208
ag209
ag210
ag211
ag212
ag213
ag214
ag215
ag216
ag217
ag218
ag219
ag220
ag221
ag222
ag223
ag224
ag225
ag226
ag227
ag228
ag229
ag230
ag231
ag232
ag233
ag234
ag235
ag236
ag237
ag238
ag239
ag240
ag241
ag242
ag243
ag244
ag245
ag246
ag247
ag248
ag249
ag250
ag251
ag252
ag253
ag254
ag255
ag256
ag257
ag258
ag259
ag260
ag261
ag262
ag263
ag264
ag265
ag266
aa(lp592
g166
ag39
ag102
ag39
ag102
ag39
ag102
ag39
ag102
ag39
ag102
ag231
ag39
ag39
ag39
ag39
ag102
ag39
ag39
ag231
ag39
ag39
ag39
ag231
ag39
ag231
ag39
ag231
ag39
ag231
ag39
ag231
ag39
ag231
ag39
ag231
ag39
ag231
ag39
ag231
ag39
ag231
ag39
ag231
ag39
ag231
ag39
ag231
ag39
ag231
ag39
ag231
ag39
ag231
ag39
ag231
ag231
ag231
ag39
ag231
ag39
ag231
ag39
ag231
ag39
ag102
ag39
ag102
ag39
ag102
ag231
ag102
ag39
ag102
ag39
ag39
ag39
ag39
ag39
ag39
ag39
ag39
ag39
ag39
ag39
ag102
ag231
ag39
ag39
ag39
ag39
ag39
ag231
ag39
ag231
ag39
ag231
ag39
ag39
ag39
ag231
ag39
ag231
ag39
ag231
ag39
ag39
ag39
ag231
ag39
ag39
ag39
ag231
ag39
ag231
ag39
ag231
ag39
ag231
ag39
ag231
ag39
ag231
ag39
ag231
ag39
ag231
ag39
ag231
ag102
ag231
ag102
ag39
ag102
ag39
ag102
ag39
ag102
ag39
ag102
ag39
ag39
ag39
ag102
ag39
ag39
ag231
ag39
ag231
ag39
ag231
ag39
ag231
ag39
ag39
ag39
ag231
ag39
ag231
ag39
ag231
ag39
ag102
ag39
ag231
ag39
ag231
ag39
ag231
ag39
ag231
ag39
ag231
ag39
ag231
ag39
ag231
ag37
ag231
ag39
ag231
ag39
ag231
ag39
ag231
ag39
ag231
ag39
ag231
ag39
ag231
ag39
ag166
ag39
ag102
ag39
ag102
ag39
ag102
ag39
ag102
ag39
ag39
ag231
ag39
ag39
ag39
ag231
ag39
ag231
ag39
ag231
ag39
ag231
ag39
ag231
ag39
ag231
ag39
ag39
ag39
ag231
ag39
ag231
ag39
ag231
ag39
ag231
ag39
ag231
ag39
ag231
ag39
ag231
ag39
ag231
ag39
ag231
ag39
ag231
ag39
ag231
ag39
ag231
ag39
ag231
ag39
ag231
ag39
ag231
ag39
ag231
ag39
ag231
ag231
ag231
aa(lp593
g166
ag39
ag102
ag39
ag102
ag39
ag102
ag231
ag102
ag231
ag102
ag231
ag102
ag39
ag39
ag39
ag102
ag231
ag39
ag231
ag39
ag231
ag39
ag231
ag102
ag231
ag39
ag231
ag39
ag231
ag39
ag231
ag39
ag231
ag39
ag231
ag39
ag231
ag39
ag231
ag39
ag231
ag39
ag231
ag39
ag231
ag39
ag231
ag37
ag231
ag39
ag231
ag39
ag231
ag39
ag231
ag39
ag231
ag39
ag231
ag39
ag231
ag39
ag231
ag39
ag102
ag39
ag102
ag39
ag102
ag39
ag102
ag39
ag102
ag39
ag102
ag231
ag39
ag231
ag39
ag39
ag39
ag231
ag39
ag231
ag39
ag231
ag39
ag39
ag39
ag231
ag39
ag231
ag39
ag231
ag39
ag102
ag39
ag231
ag39
ag231
ag39
ag231
ag39
ag231
ag39
ag231
ag39
ag231
ag39
ag231
ag39
ag231
ag39
ag231
ag39
ag231
ag39
ag231
ag39
ag231
ag39
ag231
ag39
ag231
ag39
ag231
ag231
ag39
ag102
ag39
ag102
ag39
ag102
ag39
ag102
ag39
ag102
ag39
ag102
ag39
ag102
ag39
ag39
ag39
ag39
ag231
ag39
ag231
ag39
ag231
ag39
ag39
ag39
ag231
ag39
ag231
ag39
ag231
ag39
ag39
ag39
ag231
ag39
ag231
ag39
ag231
ag39
ag231
ag39
ag231
ag39
ag231
ag39
ag231
ag39
ag39
ag39
ag231
ag39
ag231
ag39
ag231
ag39
ag231
ag39
ag231
ag39
ag231
ag39
ag231
ag39
ag166
ag231
ag102
ag39
ag102
ag39
ag102
ag39
ag102
ag231
ag102
ag231
ag102
ag231
ag39
ag39
ag39
ag39
ag39
ag231
ag39
ag231
ag39
ag231
ag39
ag231
ag39
ag231
ag39
ag231
ag39
ag231
ag39
ag231
ag39
ag231
ag39
ag231
ag39
ag231
ag39
ag231
ag39
ag231
ag39
ag231
ag39
ag231
ag39
ag231
ag39
ag231
ag39
ag231
ag39
ag231
ag39
ag231
ag39
ag231
ag39
ag231
ag39
ag231
aa(lp594
g37
ag39
ag102
ag39
ag102
ag39
ag102
ag39
ag102
ag39
ag102
ag231
ag102
ag231
ag39
ag39
ag102
ag231
ag102
ag231
ag39
ag39
ag39
ag231
ag39
ag231
ag39
ag231
ag39
ag39
ag39
ag39
ag39
ag231
ag39
ag231
ag39
ag231
ag39
ag231
ag39
ag231
ag39
ag231
ag39
ag231
ag39
ag231
ag39
ag231
ag39
ag231
ag39
ag231
ag39
ag231
ag39
ag231
ag39
ag231
ag39
ag231
ag39
ag231
ag39
ag166
ag39
ag102
ag231
ag102
ag39
ag102
ag231
ag102
ag39
ag102
ag231
ag102
ag231
ag39
ag231
ag102
ag39
ag39
ag231
ag39
ag231
ag39
ag231
ag39
ag231
ag39
ag231
ag39
ag231
ag39
ag39
ag39
ag231
ag39
ag231
ag39
ag231
ag39
ag231
ag39
ag231
ag39
ag231
ag39
ag231
ag39
ag231
ag39
ag231
ag39
ag231
ag39
ag231
ag39
ag231
ag39
ag231
ag39
ag231
ag39
ag231
ag39
ag39
ag102
ag231
ag102
ag231
ag102
ag231
ag102
ag39
ag102
ag39
ag102
ag39
ag102
ag231
ag39
ag231
ag39
ag231
ag39
ag231
ag39
ag39
ag39
ag39
ag39
ag231
ag39
ag231
ag39
ag231
ag39
ag231
ag39
ag231
ag39
ag231
ag39
ag231
ag39
ag231
ag39
ag231
ag39
ag231
ag39
ag231
ag39
ag231
ag39
ag231
ag39
ag231
ag39
ag231
ag39
ag231
ag39
ag231
ag39
ag231
ag39
ag231
ag39
ag166
ag39
ag102
ag39
ag102
ag39
ag102
ag39
ag102
ag39
ag102
ag39
ag102
ag39
ag39
ag39
ag39
ag231
ag39
ag39
ag39
ag231
ag39
ag231
ag39
ag231
ag39
ag231
ag39
ag231
ag39
ag231
ag39
ag231
ag39
ag231
ag39
ag231
ag39
ag231
ag39
ag231
ag39
ag231
ag39
ag231
ag39
ag231
ag39
ag231
ag39
ag231
ag39
ag231
ag39
ag231
ag39
ag231
ag39
ag231
ag39
ag231
ag39
ag231
aa(lp595
g166
ag39
ag102
ag39
ag102
ag39
ag102
ag39
ag102
ag39
ag102
ag39
ag102
ag231
ag102
ag39
ag102
ag39
ag39
ag231
ag39
ag231
ag39
ag231
ag39
ag39
ag39
ag231
ag39
ag231
ag39
ag231
ag39
ag39
ag39
ag231
ag39
ag231
ag39
ag231
ag39
ag231
ag39
ag231
ag39
ag231
ag39
ag231
ag39
ag231
ag39
ag231
ag39
ag231
ag39
ag231
ag39
ag231
ag39
ag231
ag39
ag231
ag39
ag231
ag39
ag166
ag39
ag102
ag39
ag102
ag39
ag102
ag39
ag102
ag39
ag102
ag39
ag102
ag39
ag102
ag39
ag39
ag231
ag39
ag231
ag39
ag231
ag39
ag39
ag39
ag231
ag39
ag231
ag39
ag231
ag39
ag39
ag39
ag231
ag39
ag231
ag39
ag231
ag39
ag231
ag39
ag231
ag39
ag231
ag39
ag231
ag102
ag231
ag102
ag231
ag39
ag231
ag39
ag231
ag39
ag231
ag39
ag231
ag39
ag231
ag39
ag231
ag39
ag39
ag102
ag39
ag102
ag39
ag102
ag39
ag102
ag39
ag102
ag39
ag102
ag231
ag102
ag39
ag39
ag231
ag39
ag39
ag39
ag231
ag39
ag231
ag39
ag231
ag39
ag231
ag39
ag231
ag39
ag231
ag39
ag39
ag39
ag39
ag39
ag231
ag39
ag231
ag39
ag231
ag39
ag231
ag39
ag231
ag39
ag231
ag39
ag231
ag39
ag231
ag39
ag231
ag39
ag231
ag39
ag231
ag39
ag231
ag39
ag231
ag39
ag231
ag39
ag166
ag39
ag102
ag39
ag102
ag39
ag102
ag39
ag102
ag39
ag102
ag39
ag102
ag231
ag39
ag39
ag102
ag39
ag39
ag231
ag39
ag231
ag39
ag231
ag39
ag231
ag39
ag231
ag39
ag231
ag39
ag39
ag39
ag39
ag39
ag39
ag39
ag231
ag39
ag231
ag39
ag231
ag39
ag231
ag39
ag231
ag39
ag231
ag166
ag231
ag39
ag231
ag39
ag231
ag39
ag231
ag39
ag231
ag39
ag231
ag39
ag231
ag39
ag231
aasssI20
(dp596
I8
(dp597
I1000
(F5217749.0
I5203256
F49659.0
tp598
sI100
(F5165710.0
I5203256
F49659.0
tp599
sg5
(lp600
I3479
aI2520
aI4632
aI3998
aI7844
aI4468
aI2386
aI3193
asI20
(F5129940.0
I5203256
F49659.0
tp601
sg8
(lp602
(lp603
g11
ag12
ag13
ag14
ag15
ag16
ag17
ag18
ag19
ag20
ag21
ag22
ag23
ag24
ag25
ag26
ag27
ag28
ag29
ag30
ag31
ag32
ag33
ag34
ag35
ag36
ag37
ag38
ag39
ag40
ag41
ag42
ag43
ag44
ag45
ag46
ag47
ag48
ag49
ag50
ag51
ag52
ag53
ag54
ag55
ag56
ag57
ag58
ag59
ag60
ag61
ag62
ag63
ag64
ag65
ag66
ag67
ag68
ag69
ag70
ag71
ag72
ag73
ag74
ag75
ag76
ag77
ag78
ag79
ag80
ag81
ag82
ag83
ag84
ag85
ag86
ag87
ag88
ag89
ag90
ag91
ag92
ag93
ag94
ag95
ag96
ag97
ag98
ag99
ag100
ag101
ag102
ag103
ag104
ag105
ag106
ag107
ag108
ag109
ag110
ag111
ag112
ag113
ag114
ag115
ag116
ag117
ag118
ag119
ag120
ag121
ag122
ag123
ag124
ag125
ag126
ag127
ag128
ag129
ag130
ag131
ag132
ag133
ag134
ag135
ag136
ag137
ag138
ag139
ag140
ag141
ag142
ag143
ag144
ag145
ag146
ag147
ag148
ag149
ag150
ag151
ag152
ag153
ag154
ag155
ag156
ag157
ag158
ag159
ag160
ag161
ag162
ag163
ag164
ag165
ag166
ag167
ag168
ag169
ag170
ag171
ag172
ag173
ag174
ag175
ag176
ag177
ag178
ag179
ag180
ag181
ag182
ag183
ag184
ag185
ag186
ag187
ag188
ag189
ag190
ag191
ag192
ag193
ag194
ag195
ag196
ag197
ag198
ag199
ag200
ag201
ag202
ag203
ag204
ag205
ag206
ag207
ag208
ag209
ag210
ag211
ag212
ag213
ag214
ag215
ag216
ag217
ag218
ag219
ag220
ag221
ag222
ag223
ag224
ag225
ag226
ag227
ag228
ag229
ag230
ag231
ag232
ag233
ag234
ag235
ag236
ag237
ag238
ag239
ag240
ag241
ag242
ag243
ag244
ag245
ag246
ag247
ag248
ag249
ag250
ag251
ag252
ag253
ag254
ag255
ag256
ag257
ag258
ag259
ag260
ag261
ag262
ag263
ag264
ag265
ag266
aa(lp604
g100
ag39
ag102
ag231
ag102
ag231
ag102
ag231
ag102
ag231
ag102
ag231
ag102
ag231
ag39
ag39
ag39
ag231
ag39
ag231
ag39
ag39
ag39
ag231
ag39
ag231
ag39
ag231
ag39
ag231
ag39
ag231
ag39
ag39
ag39
ag231
ag39
ag231
ag39
ag231
ag39
ag231
ag39
ag231
ag39
ag231
ag39
ag231
ag39
ag231
ag39
ag231
ag39
ag231
ag39
ag231
ag39
ag231
ag39
ag231
ag39
ag231
ag39
ag231
ag39
ag102
ag39
ag102
ag231
ag102
ag39
ag102
ag231
ag102
ag39
ag39
ag231
ag39
ag231
ag39
ag39
ag39
ag39
ag39
ag231
ag39
ag231
ag39
ag231
ag39
ag231
ag39
ag231
ag39
ag231
ag39
ag231
ag39
ag231
ag39
ag231
ag39
ag231
ag39
ag231
ag39
ag231
ag39
ag231
ag39
ag231
ag39
ag231
ag39
ag231
ag39
ag231
ag39
ag231
ag39
ag231
ag39
ag231
ag39
ag231
ag39
ag231
ag39
ag39
ag102
ag39
ag102
ag231
ag102
ag231
ag102
ag39
ag102
ag39
ag39
ag39
ag39
ag231
ag39
ag231
ag39
ag231
ag39
ag231
ag39
ag231
ag39
ag231
ag39
ag231
ag39
ag39
ag39
ag231
ag39
ag231
ag39
ag231
ag39
ag231
ag39
ag231
ag39
ag231
ag39
ag231
ag39
ag231
ag39
ag231
ag39
ag231
ag39
ag231
ag39
ag231
ag39
ag231
ag39
ag231
ag39
ag231
ag39
ag231
ag39
ag231
ag231
ag166
ag231
ag102
ag39
ag102
ag39
ag102
ag39
ag102
ag231
ag102
ag231
ag39
ag231
ag39
ag39
ag39
ag231
ag39
ag231
ag39
ag231
ag39
ag231
ag39
ag231
ag39
ag231
ag39
ag231
ag39
ag231
ag39
ag231
ag39
ag231
ag39
ag231
ag39
ag231
ag39
ag231
ag39
ag231
ag39
ag231
ag39
ag231
ag39
ag231
ag39
ag231
ag39
ag231
ag39
ag231
ag39
ag231
ag39
ag231
ag231
ag231
ag39
ag231
aa(lp605
g166
ag39
ag102
ag39
ag102
ag39
ag102
ag39
ag102
ag39
ag102
ag39
ag102
ag231
ag102
ag231
ag102
ag231
ag39
ag231
ag39
ag231
ag39
ag231
ag39
ag231
ag39
ag39
ag39
ag231
ag39
ag231
ag39
ag102
ag39
ag231
ag39
ag231
ag39
ag231
ag39
ag39
ag39
ag231
ag39
ag231
ag39
ag231
ag39
ag231
ag39
ag39
ag39
ag231
ag39
ag231
ag39
ag231
ag39
ag231
ag39
ag231
ag39
ag231
ag231
ag39
ag39
ag102
ag39
ag102
ag231
ag102
ag39
ag102
ag39
ag39
ag39
ag102
ag39
ag102
ag231
ag39
ag231
ag39
ag39
ag39
ag231
ag39
ag231
ag39
ag231
ag39
ag231
ag39
ag231
ag39
ag39
ag39
ag231
ag39
ag231
ag39
ag231
ag39
ag231
ag39
ag231
ag39
ag231
ag39
ag231
ag39
ag231
ag39
ag231
ag39
ag231
ag39
ag231
ag39
ag231
ag39
ag231
ag39
ag231
ag231
ag231
ag39
ag231
ag102
ag39
ag102
ag39
ag102
ag39
ag102
ag39
ag102
ag231
ag102
ag39
ag102
ag39
ag102
ag231
ag102
ag231
ag39
ag231
ag39
ag231
ag39
ag231
ag39
ag231
ag39
ag231
ag39
ag231
ag39
ag39
ag39
ag39
ag39
ag231
ag39
ag231
ag39
ag231
ag39
ag231
ag39
ag231
ag39
ag231
ag39
ag231
ag39
ag231
ag39
ag231
ag39
ag231
ag39
ag231
ag39
ag231
ag39
ag231
ag39
ag231
ag39
ag39
ag39
ag39
ag39
ag102
ag231
ag102
ag39
ag102
ag39
ag102
ag231
ag102
ag231
ag39
ag39
ag39
ag39
ag39
ag231
ag102
ag231
ag39
ag231
ag39
ag231
ag39
ag231
ag39
ag231
ag39
ag231
ag39
ag39
ag39
ag231
ag39
ag231
ag39
ag231
ag39
ag231
ag39
ag231
ag39
ag231
ag39
ag231
ag37
ag231
ag39
ag231
ag39
ag231
ag39
ag231
ag39
ag231
ag39
ag231
ag39
ag231
ag39
ag231
aa(lp606
g166
ag39
ag102
ag39
ag102
ag39
ag102
ag231
ag102
ag39
ag102
ag231
ag102
ag231
ag102
ag231
ag102
ag231
ag39
ag39
ag39
ag231
ag39
ag231
ag102
ag231
ag39
ag231
ag39
ag231
ag39
ag231
ag39
ag39
ag39
ag231
ag39
ag231
ag39
ag231
ag39
ag231
ag39
ag231
ag39
ag231
ag39
ag231
ag102
ag231
ag39
ag231
ag39
ag231
ag39
ag231
ag39
ag231
ag39
ag231
ag39
ag231
ag39
ag231
ag39
ag231
ag39
ag102
ag39
ag102
ag231
ag102
ag39
ag102
ag231
ag102
ag231
ag102
ag39
ag39
ag39
ag39
ag39
ag39
ag231
ag39
ag231
ag39
ag231
ag39
ag231
ag39
ag231
ag39
ag231
ag39
ag39
ag39
ag231
ag39
ag231
ag39
ag231
ag39
ag231
ag39
ag231
ag39
ag231
ag39
ag231
ag102
ag231
ag102
ag231
ag39
ag231
ag39
ag231
ag39
ag231
ag39
ag231
ag39
ag231
ag39
ag231
ag39
ag39
ag102
ag231
ag102
ag39
ag102
ag39
ag102
ag39
ag102
ag231
ag102
ag231
ag102
ag39
ag39
ag39
ag39
ag231
ag39
ag39
ag39
ag39
ag39
ag231
ag39
ag231
ag39
ag231
ag39
ag231
ag39
ag39
ag39
ag39
ag39
ag231
ag39
ag231
ag39
ag231
ag39
ag231
ag39
ag231
ag39
ag231
ag39
ag231
ag39
ag231
ag39
ag231
ag39
ag231
ag39
ag231
ag39
ag231
ag39
ag231
ag39
ag231
ag39
ag37
ag39
ag231
ag39
ag102
ag231
ag102
ag39
ag102
ag39
ag102
ag39
ag102
ag39
ag39
ag39
ag102
ag231
ag39
ag231
ag39
ag231
ag39
ag231
ag39
ag231
ag39
ag231
ag39
ag231
ag39
ag231
ag39
ag231
ag39
ag39
ag39
ag231
ag39
ag231
ag39
ag231
ag39
ag231
ag39
ag231
ag39
ag231
ag39
ag231
ag39
ag231
ag39
ag231
ag39
ag231
ag39
ag231
ag39
ag231
ag39
ag231
ag39
ag231
aa(lp607
g166
ag39
ag102
ag39
ag102
ag231
ag102
ag39
ag102
ag39
ag102
ag39
ag102
ag231
ag39
ag39
ag102
ag231
ag102
ag39
ag39
ag231
ag39
ag231
ag39
ag231
ag39
ag231
ag39
ag231
ag39
ag231
ag39
ag39
ag39
ag231
ag39
ag231
ag39
ag231
ag39
ag231
ag39
ag231
ag39
ag231
ag39
ag231
ag102
ag231
ag231
ag231
ag39
ag231
ag39
ag231
ag39
ag231
ag39
ag231
ag39
ag231
ag39
ag231
ag39
ag102
ag39
ag102
ag39
ag102
ag39
ag102
ag39
ag102
ag39
ag39
ag39
ag102
ag231
ag39
ag39
ag39
ag231
ag39
ag231
ag39
ag231
ag39
ag231
ag39
ag231
ag39
ag231
ag39
ag231
ag39
ag39
ag39
ag39
ag39
ag231
ag39
ag231
ag39
ag231
ag39
ag231
ag39
ag231
ag39
ag231
ag102
ag231
ag102
ag231
ag39
ag231
ag39
ag231
ag39
ag231
ag39
ag231
ag231
ag231
ag39
ag231
ag39
ag231
ag102
ag231
ag102
ag39
ag102
ag39
ag102
ag231
ag102
ag39
ag102
ag39
ag102
ag39
ag39
ag231
ag39
ag231
ag39
ag231
ag39
ag39
ag39
ag231
ag39
ag231
ag39
ag231
ag39
ag231
ag39
ag39
ag39
ag39
ag39
ag231
ag39
ag231
ag39
ag231
ag39
ag231
ag39
ag231
ag39
ag231
ag39
ag231
ag39
ag231
ag39
ag231
ag39
ag231
ag39
ag231
ag39
ag231
ag39
ag231
ag39
ag231
ag39
ag166
ag39
ag37
ag231
ag102
ag39
ag102
ag231
ag102
ag231
ag102
ag231
ag102
ag231
ag39
ag39
ag39
ag231
ag39
ag231
ag39
ag231
ag39
ag231
ag39
ag231
ag39
ag231
ag39
ag231
ag39
ag231
ag39
ag231
ag39
ag39
ag39
ag231
ag39
ag231
ag39
ag231
ag39
ag231
ag39
ag231
ag39
ag231
ag39
ag231
ag39
ag231
ag39
ag231
ag39
ag231
ag39
ag231
ag39
ag231
ag39
ag231
ag39
ag231
aa(lp608
g166
ag39
ag102
ag39
ag102
ag39
ag102
ag39
ag102
ag39
ag102
ag39
ag102
ag231
ag102
ag39
ag102
ag39
ag102
ag39
ag39
ag231
ag39
ag39
ag102
ag39
ag39
ag231
ag39
ag231
ag39
ag39
ag39
ag39
ag39
ag231
ag39
ag231
ag39
ag231
ag39
ag231
ag39
ag231
ag39
ag231
ag39
ag231
aS'11'
p609
ag39
ag39
ag231
ag39
ag231
ag39
ag231
ag39
ag231
ag39
ag231
ag39
ag231
ag39
ag231
ag39
aS'14'
p610
ag39
ag102
ag39
ag102
ag39
ag102
ag39
ag102
ag39
ag102
ag39
ag102
ag39
ag102
ag39
ag102
ag39
ag102
ag231
ag39
ag39
ag39
ag39
ag39
ag231
ag39
ag39
ag39
ag231
ag39
ag39
ag39
ag39
ag39
ag231
ag39
ag231
ag39
ag231
ag39
ag231
ag39
ag231
ag39
ag231
ag102
ag231
ag102
ag231
ag39
ag231
ag39
ag231
ag39
ag231
ag39
ag231
ag39
ag231
ag39
ag231
ag39
ag39
ag102
ag39
ag102
ag39
ag102
ag39
ag102
ag39
ag102
ag39
ag102
ag39
ag102
ag39
ag102
ag39
ag102
ag39
ag39
ag39
ag39
ag231
ag39
ag39
ag39
ag39
ag39
ag231
ag39
ag231
ag39
ag39
ag39
ag39
ag39
ag231
ag39
ag39
ag39
ag231
ag39
ag231
ag39
ag231
ag39
ag231
ag39
ag231
aS'13'
p611
ag231
ag39
ag231
ag39
ag231
ag39
ag231
ag39
ag231
ag39
ag231
ag39
ag231
ag39
aS'15'
p612
ag39
aS'15'
p613
ag39
ag102
ag39
ag102
ag39
ag102
ag39
ag102
ag39
ag102
ag231
ag102
ag39
ag102
ag39
ag39
ag231
ag39
ag231
ag39
ag231
ag102
ag231
ag39
ag231
ag39
ag39
ag39
ag39
ag39
ag39
ag39
ag39
ag39
ag231
ag39
ag231
ag39
ag231
ag39
ag39
ag39
ag231
ag39
ag231
aS'12'
p614
ag231
ag39
ag231
ag39
ag231
ag39
ag231
ag39
ag231
ag39
aS'10'
p615
ag39
ag231
ag39
ag231
aa(lp616
g166
ag39
ag102
ag39
ag102
ag231
ag102
ag231
ag102
ag39
ag102
ag231
ag102
ag231
ag39
ag39
ag102
ag39
ag39
ag231
ag39
ag231
ag39
ag231
ag39
ag39
ag39
ag231
ag39
ag231
ag39
ag231
ag39
ag39
ag39
ag231
ag39
ag231
ag39
ag231
ag39
ag231
ag39
ag231
ag39
ag231
ag39
ag231
ag102
ag231
ag39
ag231
ag39
ag231
ag39
ag231
ag39
ag231
ag39
ag231
ag39
ag231
ag39
ag231
ag39
ag37
ag39
ag102
ag231
ag102
ag39
ag102
ag39
ag102
ag39
ag102
ag39
ag39
ag39
ag39
ag39
ag39
ag39
ag39
ag231
ag39
ag231
ag39
ag231
ag39
ag231
ag39
ag231
ag39
ag231
ag39
ag39
ag39
ag231
ag39
ag231
ag39
ag231
ag39
ag231
ag39
ag231
ag39
ag231
ag39
ag231
ag102
ag231
ag102
ag231
ag39
ag231
ag39
ag231
ag39
ag231
ag39
ag231
ag39
ag231
ag39
ag231
ag39
ag231
ag102
ag39
ag102
ag231
ag102
ag39
ag102
ag231
ag102
ag39
ag102
ag231
ag102
ag39
ag39
ag231
ag39
ag231
ag39
ag231
ag39
ag231
ag39
ag231
ag39
ag231
ag39
ag231
ag39
ag231
ag39
ag39
ag39
ag39
ag39
ag231
ag39
ag231
ag39
ag231
ag39
ag231
ag39
ag231
ag39
ag231
ag39
ag231
ag102
ag231
ag39
ag231
ag39
ag231
ag39
ag231
ag39
ag231
ag39
ag231
ag39
ag231
ag39
ag166
ag39
ag231
ag39
ag102
ag231
ag102
ag39
ag102
ag39
ag102
ag39
ag102
ag231
ag39
ag39
ag39
ag39
ag39
ag231
ag39
ag231
ag39
ag231
ag39
ag231
ag39
ag231
ag39
ag231
ag39
ag231
ag39
ag231
ag39
ag39
ag39
ag231
ag39
ag231
ag39
ag231
ag39
ag231
ag39
ag231
ag39
ag231
ag39
ag231
ag39
ag231
ag39
ag231
ag39
ag231
ag39
ag231
ag39
ag231
ag39
ag231
ag39
ag231
aa(lp617
g166
ag39
ag102
ag39
ag102
ag39
ag102
ag39
ag102
ag39
ag102
ag231
ag102
ag231
ag102
ag39
ag102
ag231
ag39
ag231
ag39
ag39
ag39
ag231
ag39
ag39
ag39
ag231
ag39
ag231
ag39
ag231
ag39
ag39
ag39
ag231
ag39
ag231
ag39
ag231
ag39
ag231
ag39
ag231
ag39
ag231
ag39
ag231
ag39
ag231
ag39
ag231
ag39
ag231
ag39
ag231
ag39
ag231
ag39
ag231
ag39
ag231
ag39
ag231
ag39
ag39
ag39
ag102
ag39
ag102
ag39
ag102
ag39
ag102
ag39
ag39
ag39
ag39
ag39
ag102
ag39
ag39
ag231
ag39
ag231
ag39
ag39
ag39
ag39
ag39
ag231
ag39
ag231
ag39
ag231
ag39
ag39
ag39
ag39
ag39
ag231
ag39
ag231
ag39
ag231
ag39
ag231
ag39
ag231
ag39
ag231
ag39
ag231
ag102
ag231
ag39
ag231
ag39
ag231
ag39
ag231
ag39
ag231
ag39
ag231
ag39
ag231
ag39
ag231
ag102
ag231
ag102
ag231
ag102
ag39
ag102
ag231
ag102
ag39
ag102
ag39
ag102
ag231
ag102
ag39
ag102
ag231
ag39
ag231
ag39
ag39
ag39
ag231
ag39
ag231
ag39
ag231
ag39
ag231
ag39
ag231
ag39
ag39
ag39
ag39
ag39
ag231
ag39
ag231
ag39
ag231
ag39
ag231
ag39
ag231
ag39
ag231
ag37
ag231
ag39
ag231
ag39
ag231
ag39
ag231
ag39
ag231
ag39
ag231
ag39
ag231
ag39
ag39
ag39
ag39
ag39
ag102
ag39
ag102
ag39
ag102
ag231
ag102
ag231
ag39
ag231
ag102
ag231
ag102
ag231
ag39
ag39
ag39
ag231
ag39
ag231
ag39
ag39
ag39
ag231
ag39
ag231
ag39
ag231
ag39
ag39
ag39
ag231
ag39
ag231
ag39
ag231
ag39
ag231
ag39
ag231
ag39
ag231
ag39
ag231
ag231
ag231
ag39
ag231
ag39
ag231
ag39
ag231
ag39
ag231
ag39
ag231
ag39
ag231
ag231
ag231
aa(lp618
g166
ag39
ag102
ag39
ag102
ag39
ag102
ag39
ag102
ag231
ag102
ag39
ag102
ag39
ag39
ag39
ag102
ag231
ag39
ag231
ag39
ag231
ag39
ag231
ag102
ag231
ag39
ag231
ag39
ag39
ag39
ag39
ag39
ag231
ag39
ag231
ag39
ag231
ag39
ag231
ag39
ag231
ag39
ag231
ag39
ag231
ag39
ag231
ag37
ag231
ag39
ag231
ag39
ag231
ag39
ag231
ag39
ag231
ag39
ag231
ag39
ag231
ag39
ag231
ag39
ag39
ag39
ag102
ag39
ag102
ag39
ag102
ag39
ag102
ag39
ag102
ag39
ag39
ag39
ag39
ag231
ag39
ag231
ag39
ag231
ag39
ag39
ag39
ag39
ag39
ag231
ag39
ag231
ag39
ag231
ag39
ag102
ag39
ag231
ag39
ag231
ag39
ag231
ag39
ag231
ag39
ag231
ag39
ag231
ag39
ag231
ag39
ag231
ag39
ag231
ag39
ag231
ag39
ag231
ag39
ag231
ag39
ag231
ag39
ag231
ag39
ag231
ag39
ag39
ag102
ag39
ag102
ag231
ag102
ag39
ag102
ag39
ag102
ag39
ag102
ag39
ag39
ag39
ag39
ag39
ag39
ag39
ag39
ag231
ag39
ag231
ag39
ag39
ag39
ag231
ag39
ag231
ag39
ag231
ag39
ag39
ag39
ag231
ag39
ag231
ag39
ag231
ag39
ag231
ag39
ag231
ag39
ag231
ag39
ag231
ag39
ag39
ag231
ag231
ag39
ag231
ag39
ag231
ag39
ag231
ag39
ag231
ag39
ag231
ag39
ag231
ag39
ag39
ag39
ag39
ag39
ag102
ag39
ag102
ag39
ag102
ag231
ag102
ag39
ag102
ag231
ag102
ag39
ag39
ag39
ag102
ag231
ag39
ag231
ag39
ag231
ag39
ag231
ag39
ag39
ag39
ag231
ag39
ag231
ag39
ag231
ag39
ag231
ag39
ag231
ag39
ag231
ag39
ag231
ag39
ag231
ag39
ag231
ag39
ag231
ag231
ag231
ag39
ag231
ag39
ag231
ag39
ag231
ag39
ag231
ag39
ag231
ag39
ag231
ag39
ag231
aassI16
(dp619
I1000
(F5313070.0
I5203256
F99421.0
tp620
sI100
(F5194860.0
I5203256
F99421.0
tp621
sg5
(lp622
I1789
aI2281
aI2362
aI957
aI2785
aI1125
aI2775
aI3472
aI2299
aI2401
aI2028
aI1054
aI798
aI3073
aI1142
aI2179
asI20
(F5136740.0
I5203256
F99421.0
tp623
sg8
(lp624
(lp625
g11
ag12
ag13
ag14
ag15
ag16
ag17
ag18
ag19
ag20
ag21
ag22
ag23
ag24
ag25
ag26
ag27
ag28
ag29
ag30
ag31
ag32
ag33
ag34
ag35
ag36
ag37
ag38
ag39
ag40
ag41
ag42
ag43
ag44
ag45
ag46
ag47
ag48
ag49
ag50
ag51
ag52
ag53
ag54
ag55
ag56
ag57
ag58
ag59
ag60
ag61
ag62
ag63
ag64
ag65
ag66
ag67
ag68
ag69
ag70
ag71
ag72
ag73
ag74
ag75
ag76
ag77
ag78
ag79
ag80
ag81
ag82
ag83
ag84
ag85
ag86
ag87
ag88
ag89
ag90
ag91
ag92
ag93
ag94
ag95
ag96
ag97
ag98
ag99
ag100
ag101
ag102
ag103
ag104
ag105
ag106
ag107
ag108
ag109
ag110
ag111
ag112
ag113
ag114
ag115
ag116
ag117
ag118
ag119
ag120
ag121
ag122
ag123
ag124
ag125
ag126
ag127
ag128
ag129
ag130
ag131
ag132
ag133
ag134
ag135
ag136
ag137
ag138
ag139
ag140
ag141
ag142
ag143
ag144
ag145
ag146
ag147
ag148
ag149
ag150
ag151
ag152
ag153
ag154
ag155
ag156
ag157
ag158
ag159
ag160
ag161
ag162
ag163
ag164
ag165
ag166
ag167
ag168
ag169
ag170
ag171
ag172
ag173
ag174
ag175
ag176
ag177
ag178
ag179
ag180
ag181
ag182
ag183
ag184
ag185
ag186
ag187
ag188
ag189
ag190
ag191
ag192
ag193
ag194
ag195
ag196
ag197
ag198
ag199
ag200
ag201
ag202
ag203
ag204
ag205
ag206
ag207
ag208
ag209
ag210
ag211
ag212
ag213
ag214
ag215
ag216
ag217
ag218
ag219
ag220
ag221
ag222
ag223
ag224
ag225
ag226
ag227
ag228
ag229
ag230
ag231
ag232
ag233
ag234
ag235
ag236
ag237
ag238
ag239
ag240
ag241
ag242
ag243
ag244
ag245
ag246
ag247
ag248
ag249
ag250
ag251
ag252
ag253
ag254
ag255
ag256
ag257
ag258
ag259
ag260
ag261
ag262
ag263
ag264
ag265
ag266
aa(lp626
g102
ag39
ag102
ag39
ag102
ag231
ag102
ag231
ag102
ag231
ag102
ag231
ag102
ag39
ag39
ag231
ag39
ag231
ag39
ag231
ag39
ag231
ag39
ag231
ag39
ag231
ag39
ag231
ag39
ag231
ag39
ag231
ag39
ag231
ag39
ag231
ag39
ag231
ag39
ag231
ag39
ag231
ag39
ag231
ag39
ag231
ag39
ag231
ag100
ag231
ag231
ag231
ag39
ag231
ag39
ag231
ag39
ag231
ag39
ag231
ag39
ag231
ag39
ag231
ag39
ag102
ag39
ag102
ag231
ag102
ag231
ag102
ag39
ag102
ag231
ag39
ag231
ag39
ag39
ag39
ag231
ag39
ag231
ag39
ag231
ag39
ag39
ag39
ag39
ag39
ag231
ag39
ag231
ag39
ag231
ag39
ag39
ag39
ag231
ag39
ag231
ag39
ag231
ag39
ag231
ag39
ag231
ag39
ag231
ag39
ag231
ag231
ag231
ag39
ag231
ag39
ag231
ag39
ag231
ag39
ag231
ag231
ag231
ag39
ag231
ag39
ag231
ag231
ag231
ag102
ag39
ag102
ag39
ag39
ag39
ag102
ag231
ag102
ag39
ag39
ag231
ag102
ag39
ag39
ag39
ag39
ag231
ag39
ag231
ag39
ag231
ag39
ag231
ag39
ag231
ag39
ag231
ag39
ag231
ag39
ag39
ag39
ag231
ag39
ag231
ag39
ag231
ag39
ag231
ag39
ag231
ag39
ag231
ag39
ag231
ag39
ag39
ag39
ag231
ag39
ag231
ag39
ag231
ag39
ag231
ag39
ag231
ag39
ag231
ag39
ag231
ag39
ag102
ag231
ag102
ag231
ag102
ag39
ag102
ag39
ag102
ag231
ag102
ag231
ag102
ag231
ag39
ag39
ag39
ag231
ag39
ag231
ag39
ag231
ag39
ag231
ag39
ag231
ag39
ag39
ag39
ag231
ag39
ag231
ag39
ag231
ag39
ag231
ag39
ag231
ag39
ag231
ag39
ag231
ag39
ag231
ag39
ag231
ag39
ag231
ag39
ag231
ag39
ag231
ag39
ag231
ag39
ag231
ag39
ag231
ag39
ag231
ag39
ag231
ag39
ag231
aa(lp627
g231
ag39
ag102
ag231
ag37
ag231
ag102
ag39
ag102
ag39
ag39
ag231
ag102
ag231
ag39
ag231
ag102
ag231
ag102
ag231
ag39
ag231
ag39
ag231
ag39
ag39
ag39
ag231
ag39
ag231
ag39
ag39
ag39
ag39
ag39
ag231
ag39
ag39
ag39
ag231
ag39
ag231
ag39
ag231
ag39
ag231
ag39
ag231
ag102
ag231
ag39
ag231
ag39
ag231
ag39
ag231
ag39
ag231
ag39
ag231
ag39
ag231
ag231
ag231
ag39
ag166
ag39
ag102
ag39
ag102
ag39
ag102
ag231
ag102
ag39
ag102
ag39
ag102
ag39
ag39
ag231
ag39
ag231
ag39
ag39
ag39
ag39
ag39
ag231
ag39
ag231
ag39
ag231
ag39
ag231
ag39
ag231
ag39
ag231
ag39
ag231
ag39
ag231
ag39
ag231
ag39
ag231
ag39
ag231
ag39
ag231
ag39
ag231
ag39
ag231
ag39
ag231
ag39
ag231
ag39
ag231
ag39
ag231
ag39
ag231
ag39
ag231
ag39
ag231
ag102
ag231
ag39
ag39
ag102
ag39
ag102
ag39
ag39
ag39
ag102
ag39
ag39
ag39
ag39
ag231
ag39
ag231
ag39
ag231
ag39
ag231
ag39
ag231
ag39
ag231
ag39
ag231
ag39
ag231
ag39
ag39
ag39
ag39
ag39
ag231
ag39
ag231
ag39
ag231
ag39
ag231
ag39
ag231
ag39
ag231
ag39
ag231
ag102
ag231
ag39
ag231
ag39
ag231
ag39
ag231
ag39
ag39
ag39
ag231
ag39
ag231
ag39
ag166
ag39
ag102
ag39
ag102
ag231
ag102
ag231
ag102
ag39
ag102
ag231
ag102
ag231
ag39
ag39
ag102
ag39
ag39
ag231
ag102
ag231
ag39
ag39
ag39
ag231
ag39
ag231
ag39
ag231
ag39
ag39
ag39
ag39
ag39
ag39
ag39
ag231
ag39
ag231
ag39
ag231
ag39
ag231
ag39
ag231
ag39
ag231
ag102
ag231
ag39
ag231
ag39
ag231
ag39
ag231
ag39
ag231
ag39
ag231
ag39
ag231
ag39
ag231
aa(lp628
g166
ag39
ag102
ag39
ag102
ag39
ag102
ag231
ag102
ag39
ag102
ag39
ag102
ag39
ag39
ag231
ag102
ag231
ag39
ag231
ag39
ag39
ag39
ag39
ag39
ag231
ag39
ag39
ag39
ag231
ag39
ag39
ag39
ag39
ag39
ag231
ag39
ag231
ag39
ag231
ag39
ag231
ag39
ag231
ag39
ag231
ag39
ag231
ag102
ag231
ag39
ag231
ag39
ag231
ag39
ag231
ag39
ag231
ag39
ag231
ag39
ag231
ag231
ag231
ag39
ag231
ag231
ag102
ag39
ag102
ag39
ag102
ag39
ag102
ag231
ag102
ag231
ag102
ag39
ag102
ag39
ag39
ag231
ag39
ag231
ag102
ag39
ag39
ag231
ag39
ag231
ag39
ag231
ag39
ag231
ag39
ag231
ag39
ag39
ag39
ag231
ag39
ag231
ag39
ag231
ag39
ag231
ag39
ag231
ag39
ag231
ag39
ag231
ag39
ag231
ag39
ag231
ag39
ag231
ag39
ag231
ag39
ag231
ag39
ag231
ag39
ag231
ag39
ag231
ag102
ag39
ag37
ag231
ag102
ag39
ag102
ag231
ag102
ag39
ag102
ag231
ag102
ag231
ag102
ag231
ag39
ag39
ag39
ag231
ag39
ag39
ag39
ag39
ag39
ag231
ag39
ag231
ag39
ag231
ag39
ag39
ag39
ag39
ag39
ag231
ag39
ag231
ag39
ag231
ag39
ag231
ag39
ag231
ag39
ag231
ag39
ag231
ag39
ag231
ag39
ag231
ag39
ag231
ag231
ag231
ag39
ag231
ag39
ag231
ag39
ag231
ag39
ag231
ag39
ag102
ag39
ag102
ag39
ag102
ag39
ag102
ag39
ag102
ag231
ag102
ag231
ag39
ag39
ag102
ag39
ag39
ag231
ag39
ag231
ag39
ag231
ag39
ag231
ag39
ag231
ag39
ag231
ag39
ag231
ag39
ag231
ag39
ag39
ag39
ag231
ag39
ag231
ag39
ag231
ag39
ag231
ag39
ag231
ag231
ag231
ag102
ag231
ag39
ag231
ag39
ag231
ag39
ag231
ag39
ag231
ag39
ag231
ag39
ag231
ag39
ag231
aa(lp629
g102
ag231
ag39
ag231
ag39
ag39
ag102
ag39
ag102
ag39
ag102
ag39
ag102
ag231
ag102
ag39
ag102
ag39
ag102
ag39
ag39
ag39
ag39
ag231
ag39
ag231
ag39
ag231
ag39
ag231
ag39
ag39
ag39
ag39
ag39
ag39
ag39
ag231
ag39
ag39
ag39
ag39
ag39
ag39
ag39
ag231
ag39
ag231
ag39
ag231
ag39
ag231
ag39
ag231
ag39
ag231
ag39
ag231
ag231
ag231
ag39
ag231
ag231
ag231
ag39
ag39
ag39
ag102
ag39
ag102
ag39
ag102
ag231
ag102
ag39
ag102
ag231
ag39
ag231
ag102
ag39
ag102
ag231
ag39
ag231
ag102
ag231
ag39
ag39
ag39
ag231
ag39
ag231
ag39
ag231
ag39
ag231
ag39
ag231
ag39
ag231
ag39
ag39
ag39
ag231
ag39
ag231
ag39
ag231
ag39
ag231
ag37
ag231
ag39
ag231
ag39
ag231
ag39
ag231
ag39
ag231
ag231
ag231
ag39
ag231
ag39
ag231
ag39
ag39
ag39
ag39
ag39
ag39
ag102
ag231
ag102
ag39
ag102
ag39
ag102
ag39
ag102
ag39
ag39
ag39
ag39
ag39
ag39
ag39
ag39
ag231
ag39
ag231
ag39
ag39
ag39
ag231
ag39
ag231
ag39
ag39
ag39
ag39
ag39
ag231
ag39
ag231
ag39
ag231
ag39
ag231
ag39
ag231
ag39
ag231
ag39
ag231
ag39
ag231
ag39
ag231
ag39
ag231
ag231
ag231
ag39
ag231
ag231
ag231
ag39
ag231
ag39
ag102
ag231
ag102
ag39
ag102
ag39
ag102
ag39
ag102
ag231
ag102
ag231
ag102
ag231
ag102
ag39
ag39
ag231
ag39
ag231
ag39
ag39
ag39
ag39
ag39
ag231
ag39
ag39
ag39
ag39
ag39
ag39
ag39
ag231
ag39
ag39
ag39
ag231
ag39
ag39
ag39
ag231
ag39
ag231
ag39
ag231
ag39
ag231
ag39
ag231
ag39
ag231
ag39
ag231
ag39
ag231
ag39
ag231
ag39
ag231
ag39
ag231
ag231
ag231
aa(lp630
g166
ag39
ag102
ag231
ag39
ag231
ag102
ag231
ag102
ag39
ag102
ag231
ag102
ag231
ag102
ag39
ag102
ag39
ag39
ag39
ag39
ag231
ag39
ag231
ag39
ag231
ag39
ag39
ag39
ag231
ag39
ag231
ag39
ag39
ag39
ag231
ag39
ag231
ag39
ag231
ag39
ag231
ag39
ag231
ag39
ag231
ag39
ag231
ag102
ag231
ag39
ag231
ag39
ag231
ag39
ag231
ag39
ag231
ag39
ag231
ag39
ag231
ag39
ag231
ag39
ag37
ag39
ag102
ag231
ag102
ag231
ag102
ag39
ag102
ag39
ag102
ag231
ag39
ag231
ag102
ag39
ag102
ag39
ag39
ag231
ag39
ag231
ag39
ag39
ag39
ag231
ag39
ag231
ag39
ag231
ag39
ag231
ag39
ag231
ag39
ag231
ag39
ag231
ag39
ag231
ag39
ag39
ag39
ag231
ag39
ag231
ag39
ag231
ag39
ag231
ag39
ag231
ag39
ag231
ag39
ag231
ag231
ag231
ag39
ag231
ag39
ag231
ag39
ag231
ag231
ag39
ag102
ag231
ag102
ag39
ag102
ag39
ag102
ag39
ag102
ag39
ag102
ag39
ag39
ag231
ag39
ag39
ag39
ag231
ag102
ag39
ag39
ag231
ag39
ag39
ag39
ag39
ag39
ag231
ag39
ag39
ag39
ag39
ag39
ag231
ag39
ag231
ag39
ag231
ag39
ag231
ag39
ag231
ag39
ag231
ag39
ag231
ag102
ag231
ag39
ag231
ag39
ag231
ag39
ag231
ag39
ag231
ag39
ag231
ag39
ag231
ag39
ag231
ag39
ag102
ag39
ag102
ag39
ag102
ag39
ag102
ag39
ag102
ag39
ag102
ag231
ag39
ag39
ag39
ag39
ag39
ag231
ag39
ag231
ag39
ag231
ag39
ag231
ag39
ag231
ag39
ag231
ag39
ag231
ag39
ag39
ag39
ag39
ag39
ag231
ag39
ag231
ag39
ag231
ag39
ag231
ag39
ag231
ag39
ag231
ag39
ag231
ag39
ag231
ag39
ag231
ag39
ag231
ag39
ag231
ag39
ag231
ag39
ag231
ag39
ag231
aa(lp631
g166
ag39
ag102
ag39
ag102
ag231
ag102
ag39
ag102
ag231
ag39
ag231
ag39
ag39
ag39
ag39
ag39
ag231
ag39
ag231
ag39
ag231
ag39
ag231
ag39
ag39
ag39
ag231
ag39
ag231
ag39
ag231
ag39
ag231
ag39
ag231
ag39
ag231
ag39
ag231
ag39
ag231
ag39
ag231
ag39
ag231
ag231
ag231
ag39
ag231
ag39
ag231
ag39
ag231
ag39
ag231
ag231
ag231
ag39
ag231
ag231
ag231
ag39
ag231
ag39
ag102
ag39
ag102
ag231
ag102
ag231
ag102
ag231
ag102
ag39
ag39
ag39
ag39
ag231
ag39
ag39
ag39
ag231
ag39
ag231
ag39
ag231
ag39
ag231
ag39
ag231
ag39
ag231
ag39
ag231
ag39
ag231
ag39
ag39
ag39
ag39
ag39
aS'10'
p632
ag39
ag231
ag39
ag231
ag39
ag231
ag39
ag231
ag39
ag231
ag39
ag39
ag39
ag231
ag39
ag231
ag39
ag231
ag39
aS'10'
p633
ag39
ag231
ag39
ag231
ag39
ag39
ag102
ag231
ag102
ag231
ag102
ag231
ag102
ag39
ag102
ag39
ag39
ag39
ag39
ag231
ag39
ag231
ag102
ag231
ag39
ag39
ag39
ag39
ag39
ag231
ag39
ag231
ag39
ag231
ag39
ag231
ag39
ag231
ag39
ag39
ag39
ag231
ag39
ag231
ag39
ag231
ag39
ag231
ag39
ag231
ag39
ag231
ag39
ag231
ag100
ag231
ag231
ag231
ag39
ag231
ag39
ag231
ag39
ag231
ag231
ag231
ag39
ag231
ag39
ag102
ag39
ag102
ag231
ag102
ag39
ag102
ag39
ag102
ag231
ag39
ag39
ag39
ag231
ag39
ag231
ag39
ag231
ag102
ag231
ag39
ag231
ag39
ag231
ag39
ag39
ag39
ag39
ag39
ag231
ag39
ag231
ag39
ag231
ag39
ag231
ag39
ag231
ag39
ag231
ag39
ag231
ag39
ag231
ag231
ag231
ag39
ag39
ag39
ag231
ag39
ag231
ag231
ag231
ag39
ag231
ag39
ag231
ag39
ag231
ag231
ag231
ag231
ag231
aa(lp634
g100
ag39
ag102
ag231
ag102
ag231
ag102
ag39
ag102
ag231
ag102
ag231
ag102
ag39
ag39
ag39
ag39
ag231
ag39
ag231
ag39
ag39
ag39
ag231
ag39
ag39
ag39
ag39
ag39
ag231
ag39
ag231
ag39
ag39
ag39
ag231
ag39
ag231
ag39
ag231
ag39
ag231
ag39
ag231
ag39
ag231
ag39
ag231
ag39
ag231
ag39
ag231
ag39
ag231
ag39
ag231
ag39
ag231
ag39
ag231
ag39
ag231
ag39
ag231
ag39
ag102
ag39
ag102
ag39
ag102
ag39
ag102
ag231
ag102
ag39
ag39
ag231
ag39
ag231
ag39
ag39
ag39
ag39
ag39
ag231
ag39
ag231
ag39
ag231
ag39
ag231
ag39
ag231
ag39
ag231
ag39
ag231
ag39
ag231
ag39
ag231
ag39
ag231
ag39
ag231
ag39
ag231
ag39
ag231
ag39
ag231
ag39
ag231
ag39
ag231
ag39
ag231
ag39
ag231
ag39
ag231
ag39
ag231
ag39
ag231
ag39
ag231
ag39
ag39
ag102
ag39
ag102
ag231
ag102
ag231
ag102
ag39
ag39
ag231
ag39
ag39
ag39
ag39
ag39
ag231
ag39
ag231
ag39
ag39
ag39
ag231
ag39
ag39
ag39
ag231
ag39
ag231
ag39
ag231
ag39
ag231
ag39
ag231
ag39
ag231
ag39
ag231
ag39
ag231
ag39
ag231
ag39
ag231
ag39
ag231
ag39
ag231
ag39
ag231
ag39
ag231
ag39
ag231
ag39
ag231
ag39
ag231
ag39
ag231
ag39
ag231
ag39
ag39
ag231
ag102
ag39
ag102
ag39
ag102
ag39
ag102
ag231
ag39
ag231
ag39
ag39
ag39
ag39
ag39
ag39
ag39
ag231
ag39
ag231
ag39
ag231
ag39
ag231
ag39
ag231
ag39
ag39
ag39
ag231
ag39
ag231
ag39
ag231
ag39
ag231
ag39
ag231
ag39
ag231
ag39
ag231
ag39
ag231
ag39
ag231
ag39
ag231
ag39
ag231
ag39
ag231
ag39
ag231
ag39
ag231
ag39
ag231
ag231
ag231
ag39
ag231
aa(lp635
S'10'
p636
ag39
ag102
ag39
aS'10'
p637
ag39
ag102
ag231
ag102
ag39
ag102
ag231
ag102
ag231
ag102
ag231
ag102
ag231
ag102
ag231
ag102
ag231
ag39
ag231
ag102
ag231
ag39
ag231
ag39
ag231
ag39
ag231
ag39
ag39
ag39
ag231
ag39
ag231
ag39
ag231
ag39
ag231
ag39
ag231
ag39
ag231
ag39
ag231
ag102
ag231
ag39
ag231
ag39
ag231
ag39
ag231
ag39
ag231
ag39
ag231
ag39
ag231
ag39
ag231
ag39
ag102
ag39
ag102
ag231
ag102
ag39
ag102
ag39
ag102
ag231
ag102
ag231
ag102
ag39
ag39
ag39
ag39
ag39
ag39
ag231
ag39
ag231
ag39
ag231
ag39
ag231
ag39
ag231
ag39
ag39
ag39
ag231
ag39
ag231
ag39
ag231
ag39
ag231
ag39
ag231
ag39
ag231
ag39
ag231
ag39
ag231
ag39
ag231
ag39
ag231
ag39
ag231
ag39
ag231
ag39
ag231
ag39
ag231
ag39
ag231
ag39
ag231
ag39
ag39
ag102
ag39
ag102
ag39
ag102
ag39
ag102
ag39
ag102
ag231
ag102
ag39
ag102
ag39
ag39
ag231
ag39
ag39
ag39
ag39
ag39
ag231
ag39
ag39
ag39
ag231
ag39
ag231
ag39
ag231
ag39
ag39
ag39
ag39
ag39
ag231
ag39
ag231
ag39
ag231
ag39
ag231
ag39
ag231
ag39
ag231
ag39
ag231
ag39
ag231
ag39
ag231
ag39
ag231
ag39
ag231
ag39
ag231
ag39
ag231
ag39
ag231
ag39
ag37
ag39
ag102
ag39
ag102
ag39
ag102
ag39
ag102
ag39
ag102
ag39
ag102
ag231
ag39
ag39
ag39
ag231
ag39
ag231
ag39
ag39
ag39
ag231
ag39
ag39
ag39
ag231
ag39
ag231
ag39
ag39
ag39
ag231
ag39
ag39
ag39
ag231
ag39
ag231
ag39
ag39
ag39
ag231
ag39
ag231
ag39
ag231
ag102
ag231
ag39
ag231
ag39
ag231
ag39
ag231
ag39
ag231
ag39
ag231
ag39
ag231
ag39
ag231
aa(lp638
g37
ag39
aS'14'
p639
ag39
ag102
ag231
ag102
ag39
ag102
ag39
ag102
ag39
ag39
ag231
ag102
ag39
ag102
ag39
ag102
ag39
ag39
ag39
ag39
ag231
ag39
ag39
ag39
ag231
ag39
ag231
ag39
ag39
ag39
ag39
ag39
ag231
ag39
ag231
ag39
ag231
ag39
ag39
ag39
ag231
ag39
ag231
ag39
ag231
ag102
ag231
ag39
ag231
ag39
ag39
ag39
ag231
ag39
ag231
ag39
ag231
ag39
ag231
ag39
ag231
ag39
aS'11'
p640
ag39
ag102
ag39
ag102
ag39
ag102
ag39
ag102
ag39
ag102
ag39
ag102
ag39
ag39
ag231
ag39
ag39
ag39
ag39
ag39
ag231
ag39
ag231
ag39
ag39
ag39
ag231
ag39
ag231
ag39
ag231
ag39
ag39
ag39
ag39
ag39
ag231
ag39
ag231
ag39
ag231
ag39
ag231
ag39
ag231
ag39
ag231
ag39
ag231
ag39
ag231
ag39
ag231
ag39
ag231
ag39
ag231
ag39
aS'10'
p641
ag39
ag231
ag39
ag231
aS'14'
p642
ag39
aS'13'
p643
ag231
ag102
ag231
ag102
ag39
ag102
ag39
ag102
ag39
ag102
ag231
ag102
ag39
ag102
ag231
ag39
ag39
ag39
ag231
ag39
ag39
ag39
ag39
ag39
ag39
ag39
ag231
ag39
ag39
ag39
ag39
ag39
ag231
ag39
ag231
ag39
ag231
ag39
ag231
ag39
ag231
ag39
ag231
ag39
ag231
ag102
ag231
ag39
ag231
ag39
ag231
ag39
ag231
ag39
ag231
ag39
ag231
ag39
ag231
ag39
aS'12'
p644
ag39
ag102
ag39
ag102
ag39
ag102
ag39
ag102
ag39
ag102
ag39
ag102
ag231
ag102
ag231
ag39
ag39
ag39
ag39
ag39
ag231
ag39
ag231
ag39
ag231
ag39
ag231
ag39
ag39
ag39
ag231
ag39
ag39
ag39
ag39
ag39
ag231
ag39
ag231
ag39
ag231
ag39
ag231
ag39
ag231
ag39
ag231
ag39
ag39
ag39
ag231
ag39
ag231
ag39
ag231
ag39
ag231
ag39
ag231
ag39
ag231
ag39
ag231
aa(lp645
g37
ag39
ag102
ag39
ag102
ag39
ag102
ag231
ag102
ag39
ag102
ag231
ag102
ag231
ag39
ag39
ag102
ag231
ag39
ag231
ag39
ag231
ag39
ag231
ag39
ag231
ag39
ag231
ag39
ag231
ag39
ag231
ag39
ag39
ag39
ag231
ag39
ag231
ag39
ag231
ag39
ag231
ag39
ag231
ag39
ag231
ag39
ag231
ag39
ag231
ag39
ag231
ag39
ag231
ag39
ag231
ag39
ag231
ag39
ag231
ag231
ag231
ag39
ag231
ag231
ag102
ag39
ag102
ag231
ag102
ag231
ag102
ag231
ag102
ag39
ag39
ag231
ag102
ag231
ag39
ag39
ag39
ag39
ag39
ag231
ag39
ag39
ag39
ag231
ag39
ag231
ag39
ag231
ag39
ag231
ag39
ag39
ag39
ag231
ag39
ag231
ag39
ag231
ag39
ag231
ag39
ag231
ag39
ag231
ag39
ag231
ag39
ag231
ag39
ag231
ag231
ag231
ag39
ag231
ag39
ag231
ag39
ag231
ag231
ag231
ag39
ag231
ag39
ag39
ag102
ag231
ag102
ag231
ag102
ag39
ag102
ag231
ag102
ag39
ag102
ag231
ag102
ag39
ag39
ag231
ag39
ag231
ag39
ag231
ag39
ag39
ag39
ag231
ag39
ag231
ag39
ag231
ag39
ag231
ag39
ag231
ag39
ag231
ag39
ag231
ag39
ag231
ag39
ag231
ag39
ag231
ag39
ag231
ag39
ag231
ag39
ag231
ag39
ag231
ag39
ag231
ag39
ag231
ag39
ag231
ag231
ag231
ag39
ag231
ag39
ag231
ag39
ag37
ag39
ag102
ag231
ag102
ag231
ag102
ag231
ag102
ag39
ag102
ag231
ag39
ag231
ag102
ag39
ag39
ag231
ag39
ag231
ag39
ag231
ag39
ag231
ag39
ag231
ag39
ag231
ag39
ag231
ag39
ag231
ag39
ag231
ag39
ag231
ag39
ag231
ag39
ag231
ag39
ag231
ag39
ag231
ag39
ag231
ag39
ag231
ag39
ag231
ag39
ag231
ag39
ag231
ag39
ag231
ag39
ag231
ag39
ag231
ag39
ag231
ag39
ag231
aa(lp646
g229
ag231
ag37
ag39
ag39
ag39
ag102
ag39
ag102
ag231
ag102
ag39
ag102
ag231
ag39
ag39
ag39
ag231
ag39
ag231
ag39
ag231
ag39
ag39
ag39
ag39
ag39
ag231
ag39
ag231
ag39
ag231
ag39
ag39
ag39
ag231
ag39
ag231
ag39
ag231
ag39
ag231
ag39
ag231
ag39
ag231
ag39
ag231
ag102
ag231
ag39
ag231
ag39
ag231
ag39
ag231
ag39
ag231
ag39
ag231
ag39
ag231
ag39
ag231
ag39
ag102
ag39
ag102
ag231
ag102
ag231
ag102
ag39
ag102
ag39
ag102
ag39
ag39
ag39
ag102
ag39
ag39
ag231
ag39
ag231
ag102
ag39
ag39
ag231
ag39
ag39
ag39
ag231
ag39
ag231
ag39
ag231
ag39
ag39
ag39
ag231
ag39
ag231
ag39
ag231
ag39
ag231
ag39
ag231
ag39
ag231
ag39
ag231
ag39
ag231
ag39
ag231
ag39
ag231
ag39
ag231
ag39
ag231
ag39
ag231
ag39
ag231
ag39
ag231
ag39
ag39
ag39
ag39
ag102
ag39
ag102
ag39
ag102
ag39
ag102
ag39
ag102
ag231
ag39
ag39
ag39
ag231
ag39
ag231
ag39
ag231
ag39
ag39
ag39
ag231
ag39
ag231
ag39
ag39
ag39
ag39
ag39
ag39
ag39
ag231
ag39
ag231
ag39
ag231
ag39
ag231
ag39
ag231
ag39
ag231
ag39
ag231
ag102
ag231
ag39
ag231
ag39
ag231
ag39
ag231
ag39
ag231
ag39
ag231
ag231
ag231
ag39
ag231
ag39
ag102
ag39
ag102
ag231
ag102
ag39
ag102
ag39
ag102
ag39
ag102
ag231
ag39
ag231
ag39
ag231
ag39
ag39
ag39
ag231
ag39
ag39
ag39
ag231
ag39
ag231
ag39
ag39
ag39
ag231
ag39
ag231
ag39
ag39
ag39
ag231
ag39
ag231
ag39
ag231
ag39
ag231
ag39
ag231
ag39
ag231
ag39
ag231
ag231
ag231
ag39
ag231
ag39
ag231
ag39
ag231
ag231
ag231
ag39
ag231
ag39
ag231
aa(lp647
g102
ag39
ag102
ag231
ag102
ag231
ag102
ag39
ag39
ag231
ag39
ag231
ag102
ag39
ag102
ag231
ag102
ag231
ag39
ag231
ag39
ag231
ag39
ag231
ag39
ag231
ag39
ag231
ag39
ag231
ag39
ag231
ag39
ag102
ag39
ag231
ag39
ag231
ag39
ag231
ag39
ag231
ag39
ag231
ag39
ag231
ag231
ag231
ag39
ag231
ag39
ag39
ag39
ag231
ag39
ag231
ag39
ag231
ag39
ag231
ag39
ag231
ag39
ag231
ag231
ag102
ag39
ag102
ag231
ag102
ag231
ag102
ag231
ag102
ag231
ag39
ag39
ag39
ag231
ag39
ag231
ag39
ag231
ag39
ag231
ag39
ag231
ag39
ag231
ag39
ag231
ag39
ag231
ag39
ag231
ag39
ag231
ag39
ag39
ag39
ag231
ag39
ag231
ag39
ag231
ag39
ag231
ag39
ag231
ag39
ag231
ag39
ag231
ag39
ag231
ag39
ag231
ag39
ag231
ag39
ag231
ag39
ag231
ag39
ag231
ag231
ag231
ag39
ag231
ag102
ag39
ag102
ag39
ag102
ag231
ag102
ag39
ag39
ag231
ag102
ag231
ag102
ag39
ag39
ag231
ag39
ag39
ag39
ag231
ag39
ag231
ag39
ag231
ag39
ag231
ag39
ag231
ag39
ag231
ag39
ag231
ag39
ag39
ag39
ag231
ag39
ag231
ag39
ag231
ag39
ag231
ag39
ag231
ag39
ag231
ag39
ag231
ag39
ag231
ag39
ag231
ag39
ag231
ag39
ag231
ag39
ag231
ag39
ag231
ag39
ag231
ag39
ag102
ag231
ag102
ag39
ag102
ag231
ag102
ag39
ag102
ag39
ag39
ag39
ag39
ag231
ag39
ag231
ag39
ag39
ag39
ag231
ag102
ag231
ag39
ag231
ag39
ag231
ag39
ag231
ag39
ag231
ag39
ag231
ag39
ag39
ag39
ag231
ag39
ag231
ag39
ag39
ag39
ag231
ag39
ag231
ag39
ag231
ag39
ag231
ag100
ag231
ag231
ag231
ag39
ag231
ag231
ag231
ag39
ag231
ag39
ag231
ag231
ag231
ag39
ag231
aa(lp648
g166
ag231
ag102
ag231
ag102
ag39
ag102
ag39
ag102
ag39
ag102
ag231
ag39
ag39
ag39
ag231
ag102
ag39
ag39
ag39
ag39
ag231
ag39
ag231
ag39
ag231
ag39
ag231
ag39
ag231
ag39
ag231
ag39
ag231
ag39
ag231
ag39
ag231
ag39
ag231
ag39
ag231
ag39
ag231
ag231
ag231
ag39
ag231
ag39
ag231
ag39
ag231
ag39
ag231
ag39
ag231
ag39
ag231
ag231
ag39
ag231
ag231
ag39
ag231
ag39
ag102
ag39
ag102
ag231
ag102
ag39
ag39
ag39
ag102
ag231
ag39
ag231
ag39
ag39
ag102
ag231
ag39
ag231
ag39
ag231
ag39
ag231
ag39
ag231
ag39
ag231
ag39
ag231
ag39
ag231
ag39
ag39
ag39
ag231
ag39
ag231
ag39
ag231
ag39
ag231
ag39
ag231
ag39
ag231
ag39
ag231
ag39
ag231
ag100
ag231
ag39
ag231
ag39
aS'10'
p649
ag231
ag231
ag39
ag231
ag231
ag231
ag39
ag231
ag39
ag39
ag102
ag231
ag102
ag231
ag102
ag39
ag39
ag39
ag102
ag39
ag39
ag231
ag102
ag231
ag102
ag231
ag39
ag231
ag102
ag231
ag39
ag231
ag39
ag231
ag39
ag39
ag39
ag231
ag39
ag231
ag39
ag231
ag39
ag231
ag39
ag231
ag39
ag231
ag39
ag231
ag39
ag231
ag39
ag231
ag39
ag231
ag39
ag231
ag39
ag231
ag39
ag231
ag39
ag231
ag39
ag231
ag39
ag231
ag231
ag231
ag39
ag231
ag231
ag102
ag39
ag102
ag39
ag102
ag231
ag39
ag39
ag39
ag39
ag39
ag231
ag39
ag39
ag39
ag231
ag39
ag231
ag102
ag231
ag39
ag231
ag39
ag231
ag39
ag231
ag39
ag231
ag39
ag231
ag39
ag231
ag39
ag231
ag39
ag102
ag39
ag231
ag39
ag231
ag39
ag231
ag39
ag231
ag39
ag231
ag39
ag231
ag39
ag231
ag39
ag231
ag39
ag231
ag231
ag231
ag39
ag231
ag231
ag231
ag39
aS'10'
p650
ag39
ag231
aa(lp651
S'18'
p652
ag39
aS'17'
p653
ag39
aS'14'
p654
ag39
ag102
ag39
ag102
ag39
ag102
ag39
ag102
ag39
ag102
ag39
ag102
ag39
ag102
ag231
ag102
ag39
ag102
ag39
ag102
ag231
ag39
ag231
ag39
ag231
ag39
ag39
ag39
ag102
ag39
ag39
ag39
ag231
ag39
ag231
ag39
ag231
ag39
ag231
ag39
ag231
ag39
ag231
ag102
ag39
ag39
ag231
ag39
ag231
ag39
ag231
ag39
ag231
ag39
ag231
ag39
aS'10'
p655
ag39
ag231
ag39
aS'13'
p656
ag39
ag102
ag39
ag102
ag39
ag102
ag39
ag102
ag39
ag102
ag39
ag102
ag39
ag102
ag39
ag102
ag39
ag39
ag231
ag102
ag39
ag39
ag39
ag39
ag39
ag39
ag39
ag39
ag231
ag39
aS'15'
p657
ag39
ag39
ag39
ag231
ag39
ag231
ag39
ag231
ag39
ag231
ag39
ag231
ag39
ag231
aS'11'
p658
ag231
ag39
ag231
ag39
ag231
ag39
ag231
ag39
ag231
ag39
ag231
ag39
ag231
ag39
ag231
ag39
ag39
aS'16'
p659
ag39
aS'18'
p660
ag39
ag102
ag39
ag102
ag39
ag102
ag39
ag102
ag39
ag102
ag39
ag102
ag231
ag102
ag39
ag39
ag231
ag39
ag231
ag39
ag39
ag39
ag39
ag39
ag231
ag39
ag39
ag39
ag39
ag39
ag39
ag39
ag231
ag39
ag39
ag39
ag231
ag102
ag231
ag39
ag231
ag39
ag39
ag39
ag231
ag102
ag231
ag39
ag231
ag39
ag231
ag39
ag231
ag39
ag231
ag39
ag231
ag39
ag231
ag39
aS'12'
p661
ag39
ag102
ag39
ag102
ag39
ag102
ag39
ag102
ag39
ag102
ag39
ag102
ag231
ag102
ag39
ag102
ag39
ag102
ag231
ag102
ag39
ag39
ag231
ag102
ag39
ag39
ag39
ag39
ag231
ag39
ag231
ag39
ag39
ag39
ag39
ag39
ag39
ag39
ag231
ag39
ag231
ag39
ag39
ag39
ag231
ag39
ag231
ag102
ag231
ag39
ag231
ag39
ag231
ag39
ag231
ag39
ag231
ag39
ag231
ag39
ag231
ag39
ag231
aa(lp662
g39
ag39
ag102
ag39
ag39
ag39
ag102
ag231
ag102
ag39
ag102
ag39
ag102
ag231
ag39
ag231
ag39
ag231
ag39
ag231
ag39
ag231
ag39
ag39
ag102
ag39
ag39
ag231
ag39
ag231
ag39
ag231
ag39
ag39
ag39
ag231
ag39
ag231
ag39
ag231
ag39
ag231
ag39
ag231
ag39
ag39
ag39
ag231
ag166
ag231
ag231
ag231
ag39
ag231
ag39
ag231
ag39
ag231
ag39
ag231
ag39
ag231
ag39
ag231
ag39
ag102
ag39
ag102
ag39
ag102
ag231
ag102
ag39
ag39
ag39
ag39
ag231
ag102
ag39
ag39
ag39
ag39
ag39
ag39
ag231
ag39
ag231
ag39
ag39
ag39
ag39
ag39
ag231
ag39
ag39
ag39
ag37
ag39
ag231
ag39
ag231
ag39
ag231
ag39
ag231
ag39
ag231
ag39
ag39
ag39
ag231
ag39
ag231
ag231
ag231
ag39
ag231
ag39
ag231
ag231
ag231
ag39
ag231
ag39
ag231
ag39
ag231
ag39
ag231
ag102
ag231
ag102
ag231
ag102
ag231
ag102
ag231
ag102
ag39
ag102
ag39
ag102
ag39
ag39
ag231
ag39
ag231
ag39
ag231
ag39
ag231
ag39
ag39
ag39
ag39
ag39
ag231
ag39
ag39
ag39
ag39
ag39
ag39
ag39
ag231
ag39
ag231
ag39
ag231
ag102
ag231
ag39
ag231
ag39
ag231
ag39
ag231
ag39
ag231
ag39
ag231
ag39
ag231
ag39
ag231
ag39
ag231
ag231
ag231
ag39
ag231
ag39
ag102
ag231
ag102
ag39
ag102
ag39
ag102
ag39
ag102
ag39
ag102
ag39
ag102
ag231
ag39
ag231
ag39
ag231
ag102
ag231
ag102
ag39
ag39
ag231
ag39
ag39
ag39
ag231
ag39
ag231
ag39
ag231
ag39
ag39
ag39
ag39
ag39
ag39
ag39
ag231
ag39
ag231
ag39
ag231
ag39
ag231
ag39
ag231
ag39
ag231
ag39
ag231
ag39
ag231
ag39
ag231
ag39
ag231
ag39
ag231
ag39
ag231
ag39
ag231
aa(lp663
g166
ag39
ag102
ag39
ag39
ag39
ag102
ag39
ag102
ag231
ag102
ag39
ag102
ag231
ag102
ag39
ag102
ag231
ag102
ag39
ag39
ag231
ag39
ag231
ag39
ag39
ag39
ag231
ag39
ag231
ag39
ag39
ag39
ag39
ag39
ag231
ag39
ag231
ag39
ag39
ag39
ag231
ag39
ag231
ag39
ag231
ag39
ag231
ag102
ag231
ag39
ag231
ag39
ag231
ag39
ag231
ag39
ag231
ag39
ag231
ag39
ag231
ag39
ag231
ag39
ag102
ag231
ag102
ag39
ag102
ag39
ag102
ag39
ag102
ag39
ag102
ag39
ag102
ag39
ag39
ag39
ag39
ag231
ag39
ag231
ag39
ag231
ag39
ag39
ag39
ag231
ag39
ag231
ag39
ag231
ag39
ag231
ag39
ag39
ag39
ag231
ag39
ag231
ag39
ag231
ag39
ag231
ag39
ag231
ag39
ag231
ag39
ag231
ag39
ag231
ag39
ag231
ag39
ag231
ag39
ag231
ag39
ag231
ag39
ag39
ag39
ag231
ag39
ag231
ag37
ag39
ag231
ag39
ag102
ag39
ag102
ag39
ag102
ag39
ag102
ag231
ag102
ag231
ag102
ag39
ag39
ag231
ag39
ag231
ag39
ag231
ag39
ag231
ag39
ag231
ag39
ag231
ag39
ag231
ag39
ag39
ag39
ag39
ag39
ag231
ag39
ag231
ag39
ag231
ag39
ag231
ag39
ag231
ag39
ag231
ag39
ag231
ag102
ag231
ag39
ag231
ag39
ag231
ag39
ag231
ag39
ag231
ag39
ag231
ag39
ag231
ag39
ag231
ag39
ag102
ag231
ag102
ag231
ag102
ag231
ag102
ag231
ag102
ag39
ag39
ag39
ag39
ag231
ag102
ag231
ag39
ag231
ag39
ag231
ag39
ag231
ag39
ag231
ag39
ag231
ag39
ag231
ag39
ag39
ag39
ag231
ag39
ag39
ag39
ag231
ag39
ag231
ag39
ag231
ag39
ag231
ag39
ag231
ag39
ag231
ag102
ag231
ag39
ag231
ag231
ag231
ag39
ag231
ag39
ag231
ag39
ag231
ag39
ag231
ag39
ag231
aassI2
(dp664
I1000
(F5123225.0
I5203256
F12397.0
tp665
sI100
(F5122490.0
I5203256
F12397.0
tp666
sg5
(lp667
I20445
aI12075
asI20
(F5117120.0
I5203256
F12397.0
tp668
sg8
(lp669
(lp670
g11
ag12
ag13
ag14
ag15
ag16
ag17
ag18
ag19
ag20
ag21
ag22
ag23
ag24
ag25
ag26
ag27
ag28
ag29
ag30
ag31
ag32
ag33
ag34
ag35
ag36
ag37
ag38
ag39
ag40
ag41
ag42
ag43
ag44
ag45
ag46
ag47
ag48
ag49
ag50
ag51
ag52
ag53
ag54
ag55
ag56
ag57
ag58
ag59
ag60
ag61
ag62
ag63
ag64
ag65
ag66
ag67
ag68
ag69
ag70
ag71
ag72
ag73
ag74
ag75
ag76
ag77
ag78
ag79
ag80
ag81
ag82
ag83
ag84
ag85
ag86
ag87
ag88
ag89
ag90
ag91
ag92
ag93
ag94
ag95
ag96
ag97
ag98
ag99
ag100
ag101
ag102
ag103
ag104
ag105
ag106
ag107
ag108
ag109
ag110
ag111
ag112
ag113
ag114
ag115
ag116
ag117
ag118
ag119
ag120
ag121
ag122
ag123
ag124
ag125
ag126
ag127
ag128
ag129
ag130
ag131
ag132
ag133
ag134
ag135
ag136
ag137
ag138
ag139
ag140
ag141
ag142
ag143
ag144
ag145
ag146
ag147
ag148
ag149
ag150
ag151
ag152
ag153
ag154
ag155
ag156
ag157
ag158
ag159
ag160
ag161
ag162
ag163
ag164
ag165
ag166
ag167
ag168
ag169
ag170
ag171
ag172
ag173
ag174
ag175
ag176
ag177
ag178
ag179
ag180
ag181
ag182
ag183
ag184
ag185
ag186
ag187
ag188
ag189
ag190
ag191
ag192
ag193
ag194
ag195
ag196
ag197
ag198
ag199
ag200
ag201
ag202
ag203
ag204
ag205
ag206
ag207
ag208
ag209
ag210
ag211
ag212
ag213
ag214
ag215
ag216
ag217
ag218
ag219
ag220
ag221
ag222
ag223
ag224
ag225
ag226
ag227
ag228
ag229
ag230
ag231
ag232
ag233
ag234
ag235
ag236
ag237
ag238
ag239
ag240
ag241
ag242
ag243
ag244
ag245
ag246
ag247
ag248
ag249
ag250
ag251
ag252
ag253
ag254
ag255
ag256
ag257
ag258
ag259
ag260
ag261
ag262
ag263
ag264
ag265
ag266
aa(lp671
S'10'
p672
ag39
ag102
ag39
ag102
ag39
ag102
ag39
ag102
ag39
ag102
ag39
ag102
ag231
ag102
ag39
ag102
ag231
ag39
ag231
ag39
ag231
ag39
ag231
ag39
ag231
ag39
ag231
ag39
ag231
ag39
ag231
ag39
ag39
ag39
ag231
ag39
ag231
ag39
ag231
ag39
ag231
ag39
ag231
ag39
ag231
ag39
ag231
ag166
ag231
ag39
ag231
ag39
ag231
ag39
ag231
ag39
ag231
ag39
ag231
ag39
ag231
ag39
ag231
ag39
ag166
ag39
ag102
ag39
ag102
ag39
ag102
ag39
ag102
ag39
ag102
ag39
ag102
ag39
ag102
ag39
ag39
ag231
ag39
ag231
ag39
ag231
ag39
ag39
ag39
ag231
ag39
ag231
ag39
ag231
ag39
ag39
ag39
ag39
ag39
ag231
ag39
ag231
ag39
ag231
ag39
ag231
ag39
ag231
ag39
ag231
ag102
ag231
ag102
ag231
ag39
ag231
ag39
ag231
ag39
ag231
ag39
ag231
ag39
ag231
ag39
ag231
ag39
ag39
ag102
ag39
ag102
ag39
ag102
ag39
ag102
ag39
ag102
ag39
ag102
ag39
ag102
ag39
ag102
ag39
ag39
ag39
ag39
ag231
ag39
ag231
ag39
ag39
ag39
ag231
ag39
ag231
ag39
ag231
ag39
ag39
ag39
ag39
ag39
ag231
ag39
ag231
ag39
ag231
ag39
ag231
ag39
ag231
ag39
ag231
ag39
ag231
ag102
ag231
ag39
ag231
ag39
ag231
ag39
ag231
ag39
ag231
ag39
ag231
ag39
ag231
ag39
ag166
ag39
ag102
ag39
ag102
ag39
ag102
ag39
ag102
ag39
ag102
ag39
ag102
ag231
ag102
ag39
ag102
ag39
ag39
ag231
ag39
ag231
ag39
ag231
ag39
ag231
ag39
ag231
ag39
ag231
ag39
ag231
ag39
ag231
ag39
ag39
ag39
ag231
ag39
ag231
ag39
ag231
ag39
ag231
ag39
ag231
ag39
ag231
ag102
ag231
ag39
ag231
ag39
ag231
ag39
ag231
ag39
ag231
ag39
aS'10'
p673
ag39
ag231
ag39
ag231
aa(lp674
g37
ag39
ag102
ag39
ag102
ag39
ag102
ag231
ag102
ag39
ag102
ag231
ag102
ag231
ag39
ag39
ag102
ag231
ag39
ag231
ag39
ag231
ag39
ag231
ag39
ag39
ag39
ag231
ag39
ag231
ag39
ag231
ag39
ag39
ag39
ag231
ag39
ag231
ag39
ag231
ag39
ag231
ag39
ag231
ag39
ag231
ag39
ag231
ag102
ag231
ag39
ag231
ag39
ag231
ag39
ag231
ag39
ag231
ag39
ag231
ag39
ag231
ag39
ag231
ag39
ag166
ag39
ag102
ag39
ag102
ag231
ag102
ag39
ag102
ag39
ag39
ag231
ag39
ag39
ag39
ag39
ag39
ag39
ag39
ag231
ag39
ag231
ag39
ag231
ag39
ag231
ag39
ag231
ag39
ag231
ag39
ag39
ag39
ag231
ag39
ag231
ag39
ag231
ag39
ag231
ag39
ag231
ag39
ag231
ag39
ag231
ag39
ag231
ag39
ag231
ag39
ag231
ag39
ag231
ag39
ag231
ag39
ag231
ag39
ag231
ag39
ag231
ag39
ag39
ag102
ag39
ag102
ag231
ag102
ag39
ag102
ag39
ag102
ag39
ag102
ag231
ag102
ag39
ag39
ag231
ag39
ag231
ag39
ag231
ag39
ag39
ag39
ag231
ag39
ag231
ag39
ag231
ag39
ag231
ag39
ag39
ag39
ag231
ag39
ag231
ag39
ag231
ag39
ag231
ag39
ag231
ag39
ag231
ag39
ag231
ag39
ag231
ag102
ag231
ag39
ag231
ag39
ag231
ag39
ag231
ag39
ag231
ag39
ag231
ag39
ag231
ag39
ag166
ag39
ag102
ag39
ag102
ag39
ag102
ag39
ag102
ag39
ag102
ag39
ag102
ag231
ag39
ag39
ag39
ag231
ag39
ag231
ag39
ag231
ag39
ag231
ag39
ag231
ag39
ag231
ag39
ag231
ag39
ag231
ag39
ag231
ag39
ag39
ag39
ag231
ag39
ag231
ag39
ag231
ag39
ag231
ag39
ag231
ag39
ag231
ag102
ag231
ag39
ag231
ag39
ag231
ag39
ag231
ag39
ag231
ag39
ag231
ag39
ag231
ag39
ag231
aassI4
(dp675
I1000
(F5157159.0
I5203256
F24810.0
tp676
sI100
(F5143231.0
I5203256
F24810.0
tp677
sg5
(lp678
I4460
aI12056
aI7191
aI8813
asI20
(F5123539.0
I5203256
F24810.0
tp679
sg8
(lp680
(lp681
g11
ag12
ag13
ag14
ag15
ag16
ag17
ag18
ag19
ag20
ag21
ag22
ag23
ag24
ag25
ag26
ag27
ag28
ag29
ag30
ag31
ag32
ag33
ag34
ag35
ag36
ag37
ag38
ag39
ag40
ag41
ag42
ag43
ag44
ag45
ag46
ag47
ag48
ag49
ag50
ag51
ag52
ag53
ag54
ag55
ag56
ag57
ag58
ag59
ag60
ag61
ag62
ag63
ag64
ag65
ag66
ag67
ag68
ag69
ag70
ag71
ag72
ag73
ag74
ag75
ag76
ag77
ag78
ag79
ag80
ag81
ag82
ag83
ag84
ag85
ag86
ag87
ag88
ag89
ag90
ag91
ag92
ag93
ag94
ag95
ag96
ag97
ag98
ag99
ag100
ag101
ag102
ag103
ag104
ag105
ag106
ag107
ag108
ag109
ag110
ag111
ag112
ag113
ag114
ag115
ag116
ag117
ag118
ag119
ag120
ag121
ag122
ag123
ag124
ag125
ag126
ag127
ag128
ag129
ag130
ag131
ag132
ag133
ag134
ag135
ag136
ag137
ag138
ag139
ag140
ag141
ag142
ag143
ag144
ag145
ag146
ag147
ag148
ag149
ag150
ag151
ag152
ag153
ag154
ag155
ag156
ag157
ag158
ag159
ag160
ag161
ag162
ag163
ag164
ag165
ag166
ag167
ag168
ag169
ag170
ag171
ag172
ag173
ag174
ag175
ag176
ag177
ag178
ag179
ag180
ag181
ag182
ag183
ag184
ag185
ag186
ag187
ag188
ag189
ag190
ag191
ag192
ag193
ag194
ag195
ag196
ag197
ag198
ag199
ag200
ag201
ag202
ag203
ag204
ag205
ag206
ag207
ag208
ag209
ag210
ag211
ag212
ag213
ag214
ag215
ag216
ag217
ag218
ag219
ag220
ag221
ag222
ag223
ag224
ag225
ag226
ag227
ag228
ag229
ag230
ag231
ag232
ag233
ag234
ag235
ag236
ag237
ag238
ag239
ag240
ag241
ag242
ag243
ag244
ag245
ag246
ag247
ag248
ag249
ag250
ag251
ag252
ag253
ag254
ag255
ag256
ag257
ag258
ag259
ag260
ag261
ag262
ag263
ag264
ag265
ag266
aa(lp682
g166
ag39
ag102
ag39
ag102
ag39
ag102
ag39
ag102
ag231
ag102
ag39
ag39
ag39
ag39
ag39
ag102
ag231
ag39
ag231
ag39
ag231
ag39
ag231
ag102
ag231
ag39
ag231
ag39
ag231
ag39
ag39
ag39
ag39
ag39
ag231
ag39
ag231
ag39
ag231
ag39
ag231
ag39
ag231
ag39
ag231
ag39
ag231
ag37
ag231
ag39
ag231
ag39
ag231
ag39
ag231
ag39
ag231
ag39
ag231
ag39
ag231
ag39
ag231
ag39
ag102
ag39
ag102
ag231
ag102
ag39
ag102
ag39
ag102
ag39
ag39
ag39
ag39
ag39
ag39
ag39
ag39
ag231
ag39
ag231
ag39
ag231
ag39
ag39
ag39
ag231
ag39
ag231
ag39
ag231
ag39
ag102
ag39
ag231
ag39
ag231
ag39
ag231
ag39
ag231
ag39
ag39
ag39
ag231
ag39
ag231
ag39
ag231
ag39
ag231
ag39
ag231
ag39
ag231
ag39
ag231
ag39
ag231
ag39
ag231
ag39
ag231
ag39
ag39
ag102
ag39
ag102
ag39
ag102
ag39
ag102
ag39
ag102
ag39
ag102
ag231
ag102
ag39
ag39
ag39
ag39
ag231
ag39
ag231
ag39
ag231
ag39
ag39
ag39
ag231
ag39
ag231
ag39
ag231
ag39
ag39
ag39
ag231
ag39
ag231
ag39
ag231
ag39
ag231
ag39
ag231
ag39
ag231
ag39
ag231
ag39
ag39
ag102
ag231
ag39
ag231
ag39
ag231
ag39
ag231
ag39
ag231
ag39
ag231
ag39
ag231
ag39
ag39
ag39
ag102
ag231
ag102
ag231
ag102
ag39
ag102
ag231
ag102
ag39
ag102
ag231
ag39
ag231
ag39
ag39
ag102
ag231
ag39
ag231
ag39
ag231
ag39
ag231
ag39
ag39
ag39
ag231
ag39
ag231
ag39
ag231
ag39
ag231
ag39
ag231
ag39
ag231
ag39
ag231
ag39
ag231
ag39
ag231
ag39
ag231
ag39
ag231
ag39
ag231
ag39
ag231
ag39
ag231
ag39
ag231
ag39
ag231
ag39
ag231
ag39
ag231
aa(lp683
S'12'
p684
ag39
ag102
ag39
ag102
ag39
ag102
ag39
ag102
ag39
ag102
ag39
ag102
ag231
ag102
ag39
ag102
ag39
ag102
ag231
ag39
ag231
ag39
ag231
ag39
ag231
ag39
ag231
ag39
ag231
ag39
ag231
ag39
ag39
ag39
ag231
ag39
ag231
ag39
ag231
ag39
ag231
ag39
ag231
ag39
ag231
ag39
ag231
aS'11'
p685
ag231
ag39
ag231
ag39
ag231
ag39
ag231
ag39
ag231
ag39
ag231
ag39
ag231
ag39
ag231
ag39
ag166
ag39
ag102
ag39
ag102
ag39
ag102
ag39
ag102
ag39
ag102
ag39
ag102
ag39
ag102
ag39
ag39
ag39
ag39
ag231
ag39
ag39
ag39
ag39
ag39
ag231
ag39
ag231
ag39
ag231
ag39
ag39
ag39
ag39
ag39
ag231
ag39
ag231
ag39
ag231
ag39
ag231
ag39
ag231
ag39
ag231
ag102
ag231
ag102
ag231
ag39
ag231
ag39
ag231
ag39
ag231
ag39
ag231
ag39
ag231
ag39
ag231
ag39
ag39
ag102
ag39
ag102
ag39
ag102
ag39
ag102
ag39
ag102
ag39
ag102
ag39
ag102
ag39
ag102
ag231
ag102
ag39
ag39
ag231
ag39
ag231
ag39
ag231
ag39
ag39
ag39
ag231
ag39
ag231
ag39
ag39
ag39
ag39
ag39
ag231
ag39
ag231
ag39
ag231
ag39
ag231
ag39
ag231
ag39
ag231
ag39
ag231
ag166
ag231
ag39
ag231
ag39
ag231
ag39
ag231
ag39
ag231
ag39
ag231
ag39
ag231
ag39
aS'12'
p686
ag39
ag102
ag39
ag102
ag39
ag102
ag39
ag102
ag39
ag102
ag39
ag102
ag231
ag102
ag39
ag102
ag39
ag39
ag231
ag39
ag231
ag39
ag231
ag39
ag231
ag39
ag231
ag39
ag231
ag39
ag231
ag39
ag39
ag39
ag39
ag39
ag231
ag39
ag231
ag39
ag231
ag39
ag39
ag39
ag231
ag39
ag231
ag166
ag231
ag39
ag231
ag39
ag231
ag39
ag231
ag39
ag231
ag39
aS'10'
p687
ag39
ag231
ag39
ag231
aa(lp688
g166
ag39
ag102
ag39
ag102
ag39
ag102
ag231
ag102
ag39
ag102
ag231
ag102
ag231
ag39
ag231
ag102
ag231
ag39
ag231
ag39
ag231
ag39
ag231
ag39
ag231
ag39
ag231
ag39
ag231
ag39
ag231
ag39
ag39
ag39
ag231
ag39
ag231
ag39
ag231
ag39
ag231
ag39
ag231
ag39
ag231
ag39
ag231
ag102
ag231
ag39
ag231
ag39
ag231
ag39
ag231
ag39
ag231
ag39
ag231
ag39
ag231
ag39
ag231
ag39
ag166
ag39
ag102
ag231
ag102
ag231
ag102
ag39
ag102
ag231
ag39
ag231
ag102
ag39
ag39
ag39
ag39
ag39
ag39
ag231
ag39
ag231
ag39
ag231
ag39
ag231
ag39
ag231
ag39
ag231
ag39
ag39
ag39
ag231
ag39
ag231
ag39
ag231
ag39
ag231
ag39
ag231
ag39
ag231
ag39
ag231
ag102
ag231
ag102
ag231
ag39
ag231
ag39
ag231
ag39
ag231
ag39
ag231
ag39
ag231
ag39
ag231
ag39
ag39
ag102
ag231
ag102
ag39
ag102
ag39
ag102
ag39
ag102
ag231
ag102
ag231
ag102
ag39
ag39
ag231
ag39
ag231
ag39
ag231
ag39
ag231
ag39
ag231
ag39
ag231
ag39
ag231
ag39
ag231
ag39
ag39
ag39
ag231
ag39
ag231
ag39
ag231
ag39
ag231
ag39
ag231
ag39
ag231
ag39
ag231
ag39
ag231
ag102
ag231
ag39
ag231
ag39
ag231
ag39
ag231
ag39
ag231
ag39
ag231
ag39
ag231
ag39
ag37
ag39
ag102
ag39
ag102
ag231
ag102
ag39
ag102
ag39
ag102
ag39
ag102
ag231
ag39
ag39
ag39
ag231
ag39
ag231
ag39
ag231
ag39
ag231
ag39
ag231
ag39
ag231
ag39
ag231
ag39
ag39
ag39
ag231
ag39
ag39
ag39
ag231
ag39
ag231
ag39
ag231
ag39
ag231
ag39
ag231
ag39
ag231
ag102
ag231
ag39
ag231
ag39
ag231
ag39
ag231
ag39
ag231
ag39
ag231
ag39
ag231
ag39
ag231
aa(lp689
g37
ag39
ag102
ag39
ag102
ag39
ag102
ag39
ag102
ag231
ag102
ag231
ag102
ag231
ag39
ag39
ag102
ag231
ag39
ag231
ag39
ag39
ag39
ag231
ag39
ag39
ag39
ag231
ag39
ag231
ag39
ag231
ag39
ag39
ag39
ag231
ag39
ag231
ag39
ag231
ag39
ag231
ag39
ag231
ag39
ag231
ag39
ag231
ag231
ag231
ag39
ag231
ag39
ag231
ag39
ag231
ag39
ag231
ag39
ag231
ag39
ag231
ag39
ag231
ag39
ag166
ag39
ag102
ag39
ag102
ag39
ag102
ag231
ag102
ag39
ag102
ag231
ag102
ag39
ag39
ag39
ag39
ag39
ag39
ag231
ag39
ag231
ag39
ag231
ag39
ag231
ag39
ag231
ag39
ag231
ag39
ag39
ag39
ag231
ag39
ag231
ag39
ag231
ag39
ag231
ag39
ag231
ag39
ag231
ag39
ag231
ag39
ag231
ag102
ag231
ag39
ag231
ag39
ag231
ag39
ag231
ag39
ag231
ag39
ag231
ag39
ag231
ag39
ag39
ag102
ag39
ag102
ag231
ag102
ag39
ag102
ag39
ag102
ag39
ag102
ag39
ag102
ag231
ag39
ag231
ag39
ag231
ag39
ag231
ag39
ag231
ag39
ag39
ag39
ag231
ag39
ag231
ag39
ag231
ag39
ag39
ag39
ag39
ag39
ag231
ag39
ag231
ag39
ag231
ag39
ag231
ag39
ag231
ag39
ag231
ag39
ag231
ag102
ag231
ag39
ag231
ag39
ag231
ag39
ag231
ag39
ag231
ag39
ag231
ag39
ag231
ag39
ag39
ag39
ag102
ag39
ag102
ag39
ag102
ag39
ag102
ag39
ag102
ag39
ag102
ag231
ag39
ag39
ag39
ag231
ag39
ag39
ag39
ag231
ag39
ag231
ag39
ag231
ag39
ag231
ag39
ag231
ag39
ag231
ag39
ag231
ag39
ag39
ag39
ag231
ag39
ag231
ag39
ag231
ag39
ag231
ag39
ag231
ag39
ag231
ag102
ag231
ag39
ag231
ag39
ag231
ag39
ag231
ag39
ag231
ag39
ag231
ag39
ag231
ag39
ag231
aasss.