(dp0
I1000
(dp1
I64
(dp2
I1
(F195999621.0
I394205624
F22248.0
tp3
sI100
(F190782482.0
I394205624
F22248.0
tp4
sI1000
(F190860236.0
I394205624
F22248.0
tp5
sI10
(F191036291.0
I394205624
F22248.0
tp6
sS'huffman_lengths'
p7
(lp8
(lp9
S' '
p10
aS'\n'
p11
aS'\r'
p12
aS','
p13
aS'/'
p14
aS'.'
p15
aS'1'
p16
aS'0'
p17
aS'3'
p18
aS'2'
p19
aS'5'
p20
aS'4'
p21
aS'7'
p22
aS'6'
p23
aS'9'
p24
aS'8'
p25
aS':'
p26
aa(lp27
g20
ag23
ag23
ag18
ag20
ag23
ag18
ag21
ag21
ag21
ag21
ag18
ag20
ag18
ag20
ag23
ag21
aa(lp28
g20
ag23
ag23
ag18
ag20
ag23
ag21
ag18
ag21
ag18
ag21
ag18
ag20
ag21
ag20
ag23
ag21
aa(lp29
g23
ag23
ag23
ag18
ag20
ag23
ag18
ag21
ag21
ag18
ag21
ag18
ag20
ag21
ag20
ag20
ag21
aa(lp30
g20
ag23
ag23
ag18
ag20
ag23
ag18
ag21
ag21
ag18
ag21
ag18
ag20
ag21
ag20
ag23
ag21
aa(lp31
g20
ag20
ag20
ag18
ag21
ag23
ag21
ag18
ag21
ag21
ag21
ag18
ag20
ag21
ag20
ag23
ag21
aa(lp32
g23
ag23
ag23
ag18
ag21
ag23
ag21
ag21
ag21
ag18
ag20
ag18
ag20
ag18
ag20
ag20
ag21
aa(lp33
g20
ag23
ag23
ag18
ag20
ag23
ag18
ag18
ag20
ag21
ag21
ag18
ag20
ag18
ag20
ag23
ag20
aa(lp34
g23
ag23
ag23
ag18
ag20
ag23
ag21
ag18
ag21
ag18
ag21
ag18
ag20
ag21
ag21
ag20
ag20
aa(lp35
g20
ag20
ag20
ag18
ag21
ag23
ag18
ag21
ag20
ag18
ag20
ag18
ag20
ag21
ag20
ag23
ag21
aa(lp36
g20
ag23
ag23
ag18
ag21
ag20
ag18
ag21
ag21
ag21
ag21
ag18
ag20
ag21
ag20
ag20
ag21
aa(lp37
g20
ag23
ag20
ag18
ag21
ag23
ag18
ag21
ag21
ag21
ag21
ag18
ag20
ag21
ag20
ag20
ag21
aa(lp38
g20
ag23
ag23
ag18
ag21
ag23
ag18
ag18
ag21
ag21
ag20
ag18
ag20
ag21
ag20
ag23
ag21
aa(lp39
g20
ag20
ag20
ag18
ag21
ag20
ag18
ag21
ag21
ag21
ag21
ag21
ag21
ag21
ag20
ag20
ag21
aa(lp40
g20
ag23
ag23
ag18
ag20
ag23
ag18
ag18
ag20
ag21
ag21
ag21
ag21
ag18
ag20
ag23
ag21
aa(lp41
g23
ag23
ag23
ag18
ag20
ag23
ag18
ag21
ag21
ag18
ag21
ag18
ag20
ag18
ag23
ag23
ag20
aa(lp42
g20
ag23
ag23
ag18
ag21
ag23
ag18
ag21
ag21
ag18
ag20
ag18
ag20
ag21
ag20
ag23
ag21
aa(lp43
g20
ag23
ag23
ag18
ag20
ag23
ag18
ag18
ag20
ag18
ag21
ag18
ag20
ag21
ag20
ag23
ag20
aa(lp44
g23
ag23
ag23
ag18
ag20
ag23
ag18
ag21
ag21
ag21
ag21
ag18
ag23
ag18
ag21
ag23
ag21
aa(lp45
g20
ag23
ag23
ag18
ag20
ag23
ag18
ag18
ag20
ag18
ag20
ag18
ag20
ag21
ag20
ag23
ag21
aa(lp46
g20
ag23
ag23
ag18
ag21
ag23
ag18
ag18
ag20
ag21
ag21
ag21
ag20
ag18
ag20
ag23
ag21
aa(lp47
g20
ag23
ag23
ag18
ag20
ag23
ag18
ag21
ag18
ag18
ag20
ag18
ag20
ag21
ag20
ag23
ag20
aa(lp48
g23
ag23
ag23
ag18
ag20
ag23
ag18
ag21
ag21
ag18
ag21
ag18
ag20
ag21
ag20
ag20
ag21
aa(lp49
g20
ag23
ag23
ag18
ag20
ag23
ag18
ag21
ag21
ag21
ag21
ag18
ag20
ag18
ag20
ag23
ag21
aa(lp50
g20
ag23
ag20
ag18
ag21
ag23
ag18
ag18
ag21
ag21
ag21
ag21
ag20
ag21
ag20
ag20
ag21
aa(lp51
g20
ag23
ag23
ag18
ag20
ag23
ag18
ag18
ag20
ag18
ag21
ag18
ag20
ag21
ag20
ag23
ag20
aa(lp52
g20
ag23
ag23
ag18
ag20
ag23
ag18
ag18
ag20
ag18
ag21
ag21
ag20
ag18
ag20
ag23
ag20
aa(lp53
g20
ag20
ag20
ag18
ag21
ag23
ag18
ag18
ag20
ag21
ag20
ag18
ag23
ag21
ag20
ag20
ag21
aa(lp54
g23
ag23
ag23
ag18
ag21
ag20
ag21
ag21
ag21
ag18
ag21
ag18
ag20
ag21
ag21
ag23
ag21
aa(lp55
g20
ag20
ag20
ag18
ag21
ag20
ag18
ag21
ag20
ag21
ag20
ag18
ag21
ag21
ag20
ag20
ag21
aa(lp56
g23
ag23
ag23
ag18
ag21
ag23
ag18
ag21
ag20
ag18
ag21
ag21
ag20
ag18
ag20
ag20
ag21
aa(lp57
g23
ag23
ag23
ag18
ag20
ag23
ag21
ag18
ag21
ag18
ag21
ag21
ag20
ag18
ag20
ag20
ag21
aa(lp58
g20
ag23
ag20
ag18
ag21
ag23
ag21
ag21
ag21
ag18
ag21
ag18
ag20
ag21
ag20
ag20
ag21
aa(lp59
g20
ag23
ag20
ag18
ag21
ag23
ag18
ag21
ag20
ag21
ag21
ag18
ag23
ag18
ag20
ag23
ag21
aa(lp60
g20
ag23
ag20
ag18
ag21
ag23
ag18
ag18
ag21
ag18
ag20
ag21
ag23
ag21
ag20
ag23
ag21
aa(lp61
g23
ag23
ag23
ag18
ag21
ag23
ag18
ag21
ag21
ag21
ag20
ag18
ag20
ag18
ag20
ag20
ag21
aa(lp62
g20
ag23
ag23
ag18
ag21
ag23
ag21
ag18
ag20
ag18
ag21
ag18
ag20
ag21
ag20
ag23
ag21
aa(lp63
g20
ag23
ag23
ag18
ag20
ag23
ag18
ag21
ag21
ag18
ag21
ag18
ag20
ag21
ag20
ag23
ag21
aa(lp64
g23
ag23
ag23
ag18
ag20
ag23
ag18
ag18
ag21
ag18
ag21
ag18
ag20
ag21
ag23
ag23
ag20
aa(lp65
g23
ag23
ag23
ag18
ag20
ag23
ag18
ag18
ag21
ag18
ag20
ag21
ag20
ag18
ag20
ag20
ag20
aa(lp66
g23
ag23
ag23
ag18
ag20
ag23
ag18
ag21
ag21
ag18
ag20
ag18
ag23
ag18
ag21
ag23
ag20
aa(lp67
g20
ag23
ag23
ag18
ag21
ag23
ag18
ag21
ag21
ag18
ag20
ag18
ag20
ag21
ag20
ag23
ag21
aa(lp68
g20
ag20
ag20
ag18
ag21
ag20
ag18
ag21
ag21
ag21
ag21
ag21
ag20
ag21
ag20
ag21
ag21
aa(lp69
g20
ag20
ag20
ag18
ag21
ag20
ag18
ag18
ag20
ag21
ag20
ag18
ag23
ag21
ag20
ag23
ag21
aa(lp70
g20
ag23
ag20
ag18
ag21
ag23
ag18
ag21
ag21
ag21
ag21
ag18
ag20
ag21
ag20
ag20
ag21
aa(lp71
g20
ag23
ag23
ag18
ag20
ag23
ag21
ag18
ag21
ag18
ag21
ag18
ag20
ag21
ag20
ag23
ag21
aa(lp72
g23
ag23
ag23
ag18
ag21
ag23
ag18
ag21
ag21
ag18
ag20
ag18
ag20
ag21
ag20
ag20
ag21
aa(lp73
g23
ag23
ag23
ag18
ag20
ag23
ag18
ag18
ag21
ag21
ag21
ag18
ag20
ag21
ag21
ag20
ag20
aa(lp74
g20
ag23
ag23
ag18
ag20
ag23
ag18
ag21
ag21
ag18
ag21
ag18
ag23
ag21
ag20
ag20
ag21
aa(lp75
g20
ag20
ag20
ag18
ag21
ag20
ag18
ag21
ag21
ag21
ag21
ag18
ag23
ag21
ag20
ag23
ag21
aa(lp76
g20
ag20
ag20
ag18
ag21
ag20
ag18
ag21
ag20
ag21
ag21
ag18
ag20
ag21
ag20
ag20
ag21
aa(lp77
g23
ag23
ag23
ag18
ag20
ag23
ag21
ag18
ag21
ag18
ag21
ag18
ag20
ag21
ag20
ag20
ag21
aa(lp78
g23
ag23
ag23
ag18
ag20
ag20
ag18
ag18
ag20
ag18
ag20
ag18
ag20
ag21
ag20
ag23
ag21
aa(lp79
g20
ag23
ag23
ag18
ag20
ag23
ag18
ag18
ag20
ag21
ag21
ag18
ag21
ag21
ag20
ag23
ag21
aa(lp80
g20
ag23
ag23
ag18
ag21
ag20
ag21
ag21
ag21
ag18
ag20
ag21
ag21
ag18
ag20
ag20
ag21
aa(lp81
g20
ag23
ag23
ag18
ag20
ag23
ag18
ag18
ag21
ag21
ag21
ag21
ag20
ag18
ag20
ag23
ag21
aa(lp82
g20
ag23
ag23
ag18
ag20
ag23
ag18
ag18
ag21
ag21
ag21
ag18
ag23
ag21
ag20
ag20
ag21
aa(lp83
g20
ag23
ag23
ag18
ag20
ag23
ag18
ag18
ag21
ag21
ag21
ag18
ag20
ag21
ag20
ag23
ag21
aa(lp84
g20
ag23
ag23
ag18
ag20
ag23
ag18
ag21
ag21
ag18
ag21
ag18
ag20
ag21
ag20
ag23
ag21
aa(lp85
g20
ag23
ag23
ag18
ag20
ag23
ag18
ag18
ag20
ag21
ag20
ag18
ag20
ag18
ag20
ag23
ag21
aa(lp86
g20
ag20
ag20
ag18
ag21
ag20
ag21
ag18
ag21
ag21
ag20
ag18
ag20
ag21
ag20
ag20
ag21
aa(lp87
g20
ag23
ag23
ag18
ag21
ag20
ag18
ag21
ag20
ag21
ag21
ag18
ag23
ag18
ag20
ag23
ag21
aa(lp88
g20
ag20
ag20
ag18
ag21
ag23
ag18
ag21
ag20
ag21
ag21
ag21
ag20
ag18
ag21
ag23
ag21
aa(lp89
g23
ag23
ag23
ag18
ag21
ag23
ag18
ag21
ag20
ag18
ag21
ag18
ag20
ag21
ag20
ag20
ag21
aa(lp90
g20
ag23
ag20
ag18
ag21
ag23
ag18
ag18
ag20
ag21
ag20
ag21
ag20
ag18
ag20
ag20
ag21
aasS'train_labels_count'
p91
(lp92
I4
aI1
aI6
aI3
aI3
aI2
aI1
aI1
aI2
aI1
aI2
aI2
aI3
aI3
aI2
aI1
aI2
aI2
aI3
aI1
aI2
aI2
aI2
aI3
aI3
aI1
aI1
aI1
aI2
aI1
aI1
aI1
aI1
aI1
aI1
aI1
aI2
aI3
aI2
aI2
aI2
aI2
aI2
aI1
aI2
aI3
aI2
aI1
aI1
aI1
aI1
aI1
aI2
aI1
aI1
aI1
aI4
aI1
aI1
aI1
aI1
aI1
aI2
aI1
assI32
(dp93
I1
(F195254308.0
I394205624
F11134.0
tp94
sI100
(F190860193.0
I394205624
F11134.0
tp95
sI1000
(F190921733.0
I394205624
F11134.0
tp96
sI10
(F191094223.0
I394205624
F11134.0
tp97
sg7
(lp98
(lp99
g10
ag11
ag12
ag13
ag14
ag15
ag16
ag17
ag18
ag19
ag20
ag21
ag22
ag23
ag24
ag25
ag26
aa(lp100
g20
ag23
ag23
ag18
ag20
ag23
ag18
ag21
ag21
ag21
ag21
ag18
ag20
ag18
ag20
ag23
ag21
aa(lp101
g20
ag23
ag23
ag18
ag20
ag23
ag18
ag18
ag21
ag18
ag20
ag18
ag20
ag21
ag20
ag23
ag20
aa(lp102
g23
ag23
ag23
ag18
ag20
ag23
ag18
ag21
ag21
ag18
ag21
ag18
ag20
ag21
ag20
ag20
ag21
aa(lp103
g20
ag23
ag20
ag18
ag21
ag23
ag18
ag21
ag21
ag21
ag21
ag18
ag20
ag21
ag20
ag20
ag21
aa(lp104
g23
ag23
ag23
ag18
ag20
ag23
ag18
ag18
ag21
ag18
ag21
ag18
ag23
ag21
ag20
ag23
ag20
aa(lp105
g23
ag23
ag23
ag18
ag20
ag23
ag18
ag18
ag21
ag21
ag21
ag18
ag20
ag21
ag21
ag20
ag20
aa(lp106
g23
ag23
ag23
ag18
ag21
ag23
ag18
ag21
ag20
ag18
ag21
ag18
ag20
ag21
ag20
ag20
ag21
aa(lp107
g23
ag23
ag23
ag18
ag20
ag23
ag18
ag21
ag20
ag18
ag21
ag18
ag20
ag21
ag21
ag20
ag21
aa(lp108
g20
ag20
ag20
ag18
ag21
ag23
ag18
ag21
ag20
ag21
ag21
ag21
ag21
ag18
ag20
ag23
ag21
aa(lp109
g20
ag23
ag20
ag18
ag21
ag23
ag18
ag21
ag21
ag21
ag20
ag18
ag20
ag21
ag21
ag20
ag21
aa(lp110
g20
ag23
ag23
ag18
ag20
ag23
ag18
ag18
ag21
ag21
ag20
ag18
ag20
ag18
ag20
ag23
ag20
aa(lp111
g23
ag23
ag23
ag18
ag21
ag23
ag18
ag18
ag20
ag18
ag21
ag21
ag20
ag21
ag20
ag20
ag21
aa(lp112
g20
ag23
ag23
ag18
ag20
ag23
ag18
ag18
ag20
ag18
ag21
ag18
ag20
ag21
ag20
ag23
ag20
aa(lp113
g20
ag23
ag23
ag18
ag20
ag23
ag18
ag21
ag21
ag18
ag21
ag18
ag20
ag21
ag20
ag23
ag21
aa(lp114
g20
ag23
ag23
ag18
ag20
ag23
ag18
ag18
ag20
ag18
ag21
ag18
ag20
ag21
ag20
ag23
ag20
aa(lp115
g20
ag20
ag20
ag18
ag21
ag23
ag21
ag18
ag21
ag21
ag21
ag18
ag20
ag21
ag20
ag23
ag21
aa(lp116
g20
ag20
ag20
ag18
ag21
ag23
ag18
ag21
ag21
ag21
ag21
ag18
ag20
ag21
ag20
ag23
ag21
aa(lp117
g20
ag23
ag23
ag18
ag20
ag23
ag18
ag18
ag21
ag18
ag20
ag18
ag20
ag21
ag20
ag23
ag20
aa(lp118
g23
ag23
ag23
ag18
ag20
ag23
ag21
ag18
ag21
ag18
ag21
ag18
ag20
ag21
ag20
ag20
ag21
aa(lp119
g23
ag23
ag23
ag18
ag20
ag23
ag18
ag21
ag18
ag18
ag20
ag18
ag23
ag21
ag20
ag23
ag21
aa(lp120
g20
ag23
ag23
ag18
ag21
ag23
ag18
ag18
ag20
ag21
ag21
ag18
ag20
ag21
ag20
ag23
ag21
aa(lp121
g23
ag23
ag23
ag18
ag20
ag23
ag18
ag18
ag21
ag21
ag20
ag18
ag20
ag21
ag21
ag20
ag21
aa(lp122
g20
ag23
ag23
ag18
ag20
ag23
ag18
ag18
ag20
ag18
ag20
ag18
ag20
ag21
ag20
ag23
ag21
aa(lp123
g20
ag23
ag23
ag18
ag20
ag23
ag18
ag21
ag21
ag18
ag21
ag18
ag20
ag21
ag21
ag23
ag20
aa(lp124
g20
ag23
ag23
ag18
ag20
ag23
ag18
ag18
ag21
ag21
ag21
ag18
ag20
ag21
ag20
ag23
ag21
aa(lp125
g23
ag23
ag23
ag18
ag20
ag23
ag18
ag21
ag21
ag18
ag21
ag18
ag23
ag18
ag20
ag23
ag20
aa(lp126
g20
ag23
ag23
ag18
ag20
ag23
ag21
ag18
ag21
ag18
ag20
ag18
ag20
ag18
ag20
ag23
ag20
aa(lp127
g20
ag23
ag20
ag18
ag21
ag23
ag21
ag18
ag21
ag21
ag21
ag18
ag20
ag21
ag20
ag20
ag21
aa(lp128
g20
ag23
ag23
ag18
ag20
ag23
ag18
ag21
ag21
ag18
ag21
ag18
ag20
ag21
ag20
ag23
ag21
aa(lp129
g20
ag23
ag20
ag18
ag21
ag23
ag18
ag18
ag21
ag21
ag21
ag21
ag20
ag21
ag20
ag20
ag21
aa(lp130
g20
ag23
ag23
ag18
ag20
ag23
ag18
ag18
ag20
ag21
ag21
ag21
ag21
ag18
ag20
ag23
ag21
aa(lp131
g20
ag23
ag23
ag18
ag21
ag23
ag18
ag18
ag21
ag21
ag21
ag21
ag21
ag21
ag20
ag23
ag21
aasg91
(lp132
I4
aI3
aI3
aI3
aI6
aI4
aI6
aI5
aI4
aI4
aI3
aI4
aI6
aI2
aI4
aI5
aI3
aI4
aI3
aI1
aI4
aI2
aI3
aI3
aI4
aI3
aI3
aI2
aI5
aI5
aI1
aI2
assI2
(dp133
I1
(F192208791.0
I394205624
F697.0
tp134
sI100
(F191369658.0
I394205624
F697.0
tp135
sI1000
(F191382716.0
I394205624
F697.0
tp136
sI10
(F191381919.0
I394205624
F697.0
tp137
sg7
(lp138
(lp139
g10
ag11
ag12
ag13
ag14
ag15
ag16
ag17
ag18
ag19
ag20
ag21
ag22
ag23
ag24
ag25
ag26
aa(lp140
g23
ag23
ag23
ag18
ag20
ag23
ag18
ag18
ag21
ag18
ag20
ag18
ag20
ag21
ag20
ag20
ag20
aa(lp141
g23
ag23
ag23
ag18
ag20
ag23
ag18
ag18
ag21
ag21
ag21
ag18
ag20
ag21
ag20
ag20
ag21
aasg91
(lp142
I58
aI56
assI4
(dp143
I1
(F192939945.0
I394205624
F1394.0
tp144
sI100
(F191213954.0
I394205624
F1394.0
tp145
sI1000
(F191225479.0
I394205624
F1394.0
tp146
sI10
(F191262875.0
I394205624
F1394.0
tp147
sg7
(lp148
(lp149
g10
ag11
ag12
ag13
ag14
ag15
ag16
ag17
ag18
ag19
ag20
ag21
ag22
ag23
ag24
ag25
ag26
aa(lp150
g23
ag23
ag23
ag18
ag20
ag23
ag18
ag18
ag21
ag18
ag21
ag18
ag23
ag21
ag20
ag23
ag20
aa(lp151
g23
ag23
ag23
ag18
ag20
ag23
ag18
ag21
ag21
ag21
ag21
ag18
ag20
ag18
ag20
ag20
ag21
aa(lp152
g23
ag23
ag23
ag18
ag20
ag23
ag18
ag18
ag21
ag21
ag21
ag18
ag20
ag21
ag20
ag20
ag21
aa(lp153
g23
ag23
ag23
ag18
ag20
ag23
ag18
ag21
ag21
ag18
ag21
ag18
ag20
ag21
ag20
ag20
ag21
aasg91
(lp154
I32
aI36
aI30
aI16
assI8
(dp155
I1
(F194116524.0
I394205624
F2783.0
tp156
sI100
(F191199086.0
I394205624
F2783.0
tp157
sI1000
(F191233191.0
I394205624
F2783.0
tp158
sI10
(F191386473.0
I394205624
F2783.0
tp159
sg7
(lp160
(lp161
g10
ag11
ag12
ag13
ag14
ag15
ag16
ag17
ag18
ag19
ag20
ag21
ag22
ag23
ag24
ag25
ag26
aa(lp162
g20
ag23
ag23
ag18
ag20
ag23
ag18
ag18
ag21
ag21
ag21
ag18
ag20
ag21
ag20
ag23
ag21
aa(lp163
g23
ag23
ag23
ag18
ag20
ag23
ag18
ag18
ag21
ag18
ag20
ag18
ag20
ag21
ag20
ag20
ag20
aa(lp164
g23
ag23
ag23
ag18
ag20
ag23
ag18
ag21
ag21
ag18
ag21
ag18
ag20
ag21
ag20
ag20
ag21
aa(lp165
g20
ag23
ag23
ag18
ag21
ag23
ag18
ag21
ag21
ag18
ag20
ag18
ag20
ag21
ag20
ag23
ag21
aa(lp166
g20
ag23
ag23
ag18
ag20
ag23
ag18
ag18
ag21
ag21
ag21
ag18
ag20
ag21
ag20
ag23
ag21
aa(lp167
g20
ag23
ag23
ag18
ag20
ag23
ag18
ag21
ag21
ag18
ag21
ag18
ag20
ag21
ag20
ag23
ag21
aa(lp168
g23
ag23
ag23
ag18
ag21
ag23
ag18
ag18
ag20
ag21
ag21
ag18
ag20
ag21
ag20
ag20
ag21
aa(lp169
g20
ag20
ag20
ag18
ag21
ag23
ag18
ag21
ag21
ag21
ag21
ag18
ag20
ag21
ag20
ag23
ag21
aasg91
(lp170
I7
aI28
aI17
aI5
aI13
aI8
aI19
aI17
assI16
(dp171
I1
(F194599194.0
I394205624
F5565.0
tp172
sI100
(F191041528.0
I394205624
F5565.0
tp173
sI1000
(F191089763.0
I394205624
F5565.0
tp174
sI10
(F191196371.0
I394205624
F5565.0
tp175
sg7
(lp176
(lp177
g10
ag11
ag12
ag13
ag14
ag15
ag16
ag17
ag18
ag19
ag20
ag21
ag22
ag23
ag24
ag25
ag26
aa(lp178
g23
ag23
ag23
ag18
ag20
ag23
ag18
ag18
ag20
ag18
ag21
ag18
ag20
ag21
ag20
ag20
ag20
aa(lp179
g20
ag20
ag20
ag18
ag21
ag20
ag18
ag21
ag21
ag21
ag20
ag18
ag20
ag21
ag20
ag20
ag21
aa(lp180
g20
ag23
ag23
ag18
ag20
ag23
ag18
ag18
ag21
ag21
ag21
ag18
ag20
ag21
ag20
ag23
ag21
aa(lp181
g20
ag20
ag20
ag18
ag21
ag23
ag18
ag18
ag20
ag21
ag20
ag18
ag20
ag21
ag20
ag23
ag21
aa(lp182
g20
ag20
ag20
ag18
ag21
ag20
ag18
ag21
ag20
ag21
ag21
ag18
ag20
ag21
ag20
ag20
ag21
aa(lp183
g20
ag23
ag23
ag18
ag20
ag23
ag18
ag18
ag21
ag21
ag21
ag18
ag20
ag21
ag20
ag23
ag21
aa(lp184
g20
ag23
ag20
ag18
ag21
ag23
ag18
ag21
ag21
ag21
ag20
ag21
ag20
ag18
ag20
ag21
ag21
aa(lp185
g23
ag23
ag23
ag18
ag20
ag23
ag21
ag18
ag21
ag18
ag21
ag18
ag23
ag18
ag20
ag23
ag20
aa(lp186
g23
ag23
ag23
ag18
ag20
ag23
ag18
ag18
ag21
ag18
ag20
ag18
ag20
ag21
ag20
ag20
ag20
aa(lp187
g23
ag23
ag23
ag18
ag20
ag23
ag18
ag21
ag21
ag21
ag21
ag18
ag23
ag18
ag21
ag23
ag21
aa(lp188
g20
ag23
ag20
ag18
ag21
ag23
ag21
ag18
ag21
ag18
ag21
ag21
ag20
ag21
ag20
ag20
ag21
aa(lp189
g20
ag23
ag23
ag18
ag20
ag23
ag21
ag18
ag21
ag18
ag21
ag18
ag20
ag21
ag20
ag23
ag21
aa(lp190
g20
ag23
ag23
ag18
ag20
ag23
ag18
ag18
ag20
ag21
ag21
ag18
ag20
ag18
ag20
ag23
ag20
aa(lp191
g20
ag23
ag23
ag18
ag20
ag23
ag18
ag21
ag18
ag18
ag20
ag18
ag20
ag21
ag20
ag23
ag20
aa(lp192
g23
ag23
ag23
ag18
ag20
ag23
ag18
ag18
ag20
ag18
ag21
ag18
ag20
ag21
ag20
ag20
ag20
aa(lp193
g23
ag23
ag23
ag18
ag20
ag23
ag21
ag18
ag21
ag18
ag21
ag18
ag20
ag21
ag20
ag20
ag21
aasg91
(lp194
I6
aI13
aI8
aI6
aI11
aI10
aI9
aI3
aI11
aI4
aI7
aI6
aI4
aI2
aI6
aI8
asssI1
(dp195
I64
(dp196
I1
(F195230176.0
I394205624
F22248.0
tp197
sI100
(F191277462.0
I394205624
F22248.0
tp198
sI1000
(F191444330.0
I394205624
F22248.0
tp199
sI10
(F191276458.0
I394205624
F22248.0
tp200
sg7
(lp201
(lp202
g10
ag11
ag12
ag13
ag14
ag15
ag16
ag17
ag18
ag19
ag20
ag21
ag22
ag23
ag24
ag25
ag26
aa(lp203
g20
ag23
ag23
ag18
ag21
ag23
ag21
ag18
ag20
ag21
ag21
ag18
ag20
ag18
ag23
ag20
ag21
aa(lp204
g20
ag23
ag20
ag18
ag21
ag23
ag18
ag18
ag21
ag21
ag20
ag21
ag20
ag21
ag20
ag21
ag21
aa(lp205
g20
ag23
ag23
ag18
ag21
ag23
ag18
ag21
ag20
ag18
ag21
ag18
ag20
ag21
ag20
ag23
ag21
aa(lp206
g20
ag20
ag20
ag18
ag21
ag20
ag18
ag21
ag21
ag18
ag21
ag21
ag23
ag21
ag20
ag23
ag21
aa(lp207
g20
ag23
ag23
ag18
ag21
ag23
ag18
ag21
ag21
ag21
ag18
ag21
ag20
ag21
ag21
ag23
ag21
aa(lp208
g20
ag20
ag20
ag18
ag21
ag23
ag18
ag21
ag21
ag18
ag20
ag21
ag21
ag21
ag20
ag23
ag21
aa(lp209
g20
ag23
ag23
ag18
ag21
ag23
ag21
ag18
ag21
ag18
ag20
ag18
ag23
ag21
ag20
ag20
ag21
aa(lp210
g23
ag23
ag23
ag18
ag21
ag23
ag18
ag21
ag18
ag18
ag21
ag21
ag23
ag21
ag20
ag23
ag21
aa(lp211
g20
ag23
ag20
ag18
ag21
ag23
ag18
ag21
ag21
ag21
ag20
ag18
ag21
ag21
ag20
ag20
ag21
aa(lp212
g23
ag23
ag23
ag18
ag21
ag23
ag18
ag18
ag20
ag21
ag20
ag21
ag20
ag18
ag21
ag20
ag21
aa(lp213
g20
ag20
ag20
ag18
ag21
ag23
ag21
ag18
ag20
ag18
ag21
ag21
ag23
ag21
ag20
ag21
ag21
aa(lp214
g20
ag20
ag20
ag18
ag21
ag23
ag21
ag18
ag20
ag21
ag18
ag18
ag23
ag21
ag23
ag23
ag21
aa(lp215
g20
ag20
ag20
ag18
ag21
ag23
ag18
ag18
ag20
ag21
ag21
ag21
ag21
ag21
ag20
ag23
ag21
aa(lp216
g20
ag23
ag23
ag18
ag21
ag23
ag19
ag21
ag21
ag21
ag20
ag21
ag23
ag21
ag20
ag20
ag21
aa(lp217
g20
ag23
ag23
ag18
ag21
ag23
ag21
ag21
ag21
ag18
ag21
ag18
ag21
ag21
ag20
ag23
ag21
aa(lp218
g20
ag20
ag20
ag18
ag21
ag20
ag18
ag21
ag21
ag21
ag20
ag21
ag23
ag18
ag21
ag23
ag21
aa(lp219
g20
ag20
ag20
ag18
ag21
ag20
ag18
ag21
ag21
ag18
ag20
ag21
ag23
ag21
ag21
ag23
ag21
aa(lp220
g23
ag23
ag23
ag18
ag20
ag23
ag18
ag18
ag20
ag18
ag20
ag18
ag23
ag18
ag23
ag20
ag20
aa(lp221
g23
ag23
ag23
ag18
ag21
ag23
ag21
ag18
ag18
ag18
ag20
ag21
ag20
ag20
ag21
ag20
ag21
aa(lp222
g20
ag20
ag20
ag18
ag21
ag20
ag18
ag21
ag20
ag21
ag20
ag21
ag20
ag18
ag20
ag21
ag21
aa(lp223
g20
ag23
ag23
ag18
ag21
ag20
ag21
ag21
ag21
ag18
ag18
ag21
ag21
ag21
ag23
ag23
ag21
aa(lp224
g23
ag23
ag23
ag18
ag20
ag23
ag18
ag21
ag21
ag18
ag20
ag18
ag23
ag18
ag20
ag23
ag21
aa(lp225
g20
ag23
ag23
ag18
ag21
ag20
ag18
ag21
ag20
ag18
ag21
ag21
ag20
ag21
ag20
ag21
ag21
aa(lp226
g20
ag23
ag20
ag18
ag21
ag23
ag18
ag18
ag21
ag21
ag21
ag21
ag23
ag21
ag23
ag21
ag21
aa(lp227
g20
ag20
ag20
ag18
ag21
ag20
ag21
ag21
ag20
ag21
ag21
ag18
ag20
ag21
ag21
ag21
ag21
aa(lp228
g20
ag23
ag23
ag18
ag21
ag23
ag18
ag18
ag21
ag18
ag20
ag21
ag20
ag21
ag20
ag23
ag21
aa(lp229
g20
ag20
ag20
ag18
ag21
ag23
ag18
ag21
ag20
ag18
ag20
ag18
ag23
ag21
ag20
ag20
ag21
aa(lp230
g23
ag23
ag23
ag18
ag20
ag23
ag18
ag18
ag21
ag21
ag18
ag21
ag23
ag18
ag20
ag23
ag20
aa(lp231
g20
ag20
ag20
ag18
ag21
ag23
ag18
ag18
ag20
ag21
ag20
ag18
ag20
ag21
ag20
ag23
ag21
aa(lp232
g20
ag23
ag20
ag18
ag21
ag23
ag19
ag21
ag20
ag21
ag21
ag21
ag23
ag21
ag23
ag20
ag21
aa(lp233
g20
ag20
ag20
ag18
ag21
ag20
ag21
ag18
ag21
ag21
ag20
ag18
ag20
ag21
ag20
ag20
ag21
aa(lp234
g23
ag23
ag23
ag18
ag20
ag20
ag18
ag21
ag21
ag21
ag21
ag18
ag23
ag21
ag21
ag21
ag21
aa(lp235
g20
ag20
ag20
ag18
ag21
ag23
ag18
ag21
ag18
ag18
ag23
ag21
ag20
ag21
ag23
ag23
ag21
aa(lp236
g23
ag23
ag23
ag18
ag21
ag20
ag18
ag21
ag18
ag21
ag18
ag21
ag23
ag21
ag23
ag23
ag21
aa(lp237
g20
ag23
ag20
ag18
ag21
ag23
ag18
ag21
ag20
ag18
ag21
ag18
ag23
ag21
ag20
ag23
ag21
aa(lp238
g20
ag20
ag20
ag18
ag21
ag23
ag21
ag18
ag20
ag18
ag20
ag21
ag20
ag18
ag20
ag23
ag21
aa(lp239
g20
ag23
ag23
ag18
ag21
ag23
ag21
ag18
ag21
ag21
ag21
ag18
ag21
ag21
ag20
ag23
ag21
aa(lp240
g23
ag23
ag23
ag18
ag20
ag23
ag21
ag21
ag21
ag18
ag18
ag18
ag23
ag21
ag21
ag23
ag21
aa(lp241
g23
ag23
ag23
ag18
ag21
ag23
ag21
ag21
ag20
ag21
ag21
ag19
ag20
ag21
ag20
ag20
ag21
aa(lp242
g20
ag23
ag23
ag18
ag20
ag23
ag18
ag18
ag20
ag21
ag21
ag18
ag20
ag21
ag21
ag23
ag21
aa(lp243
g20
ag23
ag20
ag18
ag21
ag23
ag18
ag18
ag20
ag21
ag21
ag18
ag23
ag21
ag20
ag23
ag21
aa(lp244
g20
ag23
ag23
ag18
ag21
ag23
ag18
ag18
ag18
ag21
ag20
ag21
ag20
ag21
ag20
ag23
ag21
aa(lp245
g23
ag23
ag23
ag18
ag20
ag23
ag21
ag18
ag21
ag18
ag20
ag18
ag23
ag21
ag18
ag23
ag20
aa(lp246
g23
ag23
ag23
ag18
ag21
ag23
ag18
ag21
ag20
ag18
ag18
ag21
ag20
ag21
ag20
ag20
ag21
aa(lp247
g20
ag23
ag23
ag18
ag21
ag23
ag18
ag21
ag21
ag21
ag21
ag18
ag23
ag18
ag23
ag23
ag21
aa(lp248
g20
ag23
ag23
ag18
ag21
ag23
ag18
ag21
ag18
ag21
ag20
ag21
ag23
ag18
ag20
ag20
ag21
aa(lp249
g20
ag20
ag20
ag18
ag21
ag23
ag18
ag21
ag20
ag18
ag20
ag21
ag20
ag18
ag23
ag20
ag21
aa(lp250
g23
ag23
ag23
ag18
ag20
ag23
ag21
ag18
ag21
ag19
ag21
ag21
ag23
ag21
ag20
ag23
ag20
aa(lp251
g20
ag20
ag20
ag18
ag21
ag20
ag18
ag18
ag20
ag18
ag20
ag21
ag23
ag21
ag23
ag20
ag21
aa(lp252
g20
ag23
ag20
ag18
ag21
ag23
ag18
ag21
ag20
ag21
ag21
ag21
ag21
ag18
ag20
ag20
ag21
aa(lp253
g20
ag20
ag20
ag18
ag21
ag23
ag21
ag18
ag21
ag21
ag21
ag18
ag23
ag21
ag20
ag20
ag21
aa(lp254
g23
ag23
ag23
ag18
ag21
ag23
ag18
ag18
ag20
ag18
ag21
ag21
ag23
ag21
ag21
ag23
ag21
aa(lp255
g20
ag23
ag23
ag18
ag21
ag23
ag21
ag18
ag21
ag18
ag21
ag18
ag23
ag21
ag23
ag23
ag21
aa(lp256
g23
ag23
ag23
ag18
ag21
ag23
ag18
ag21
ag21
ag18
ag20
ag18
ag20
ag21
ag20
ag20
ag21
aa(lp257
g20
ag20
ag20
ag18
ag21
ag20
ag18
ag21
ag21
ag21
ag21
ag21
ag20
ag18
ag23
ag23
ag21
aa(lp258
g20
ag20
ag20
ag18
ag21
ag20
ag18
ag21
ag20
ag18
ag20
ag21
ag20
ag18
ag23
ag23
ag21
aa(lp259
g23
ag23
ag23
ag18
ag20
ag23
ag21
ag18
ag18
ag18
ag23
ag18
ag23
ag18
ag23
ag23
ag20
aa(lp260
g20
ag23
ag23
ag18
ag20
ag23
ag18
ag18
ag20
ag18
ag21
ag21
ag20
ag18
ag20
ag23
ag20
aa(lp261
g20
ag20
ag20
ag18
ag21
ag20
ag18
ag21
ag20
ag21
ag21
ag18
ag20
ag21
ag20
ag20
ag21
aa(lp262
g20
ag23
ag23
ag18
ag21
ag23
ag18
ag21
ag20
ag18
ag20
ag21
ag21
ag18
ag20
ag23
ag21
aa(lp263
g20
ag23
ag20
ag18
ag21
ag23
ag18
ag18
ag21
ag21
ag20
ag18
ag23
ag21
ag20
ag23
ag21
aa(lp264
g23
ag23
ag23
ag18
ag20
ag23
ag18
ag21
ag21
ag19
ag20
ag21
ag23
ag21
ag20
ag23
ag21
aa(lp265
g20
ag20
ag20
ag18
ag21
ag23
ag18
ag21
ag20
ag21
ag21
ag21
ag21
ag18
ag20
ag23
ag21
aa(lp266
g20
ag20
ag20
ag18
ag21
ag23
ag18
ag21
ag21
ag18
ag20
ag21
ag23
ag21
ag21
ag20
ag21
aasg91
(lp267
I1735
aI1717
aI2404
aI2285
aI1672
aI1865
aI1441
aI1753
aI1646
aI1867
aI1724
aI1600
aI2017
aI1687
aI1463
aI1728
aI1801
aI2223
aI1397
aI1893
aI1558
aI2190
aI1986
aI1832
aI1395
aI1840
aI2191
aI1690
aI1982
aI1858
aI1567
aI1506
aI1928
aI1669
aI1877
aI1721
aI1689
aI1238
aI1430
aI1608
aI1859
aI1670
aI1424
aI1652
aI2031
aI1833
aI1980
aI933
aI2043
aI2045
aI1665
aI1905
aI1914
aI1742
aI1976
aI1689
aI1794
aI1900
aI1988
aI2109
aI1916
aI1645
aI1792
aI1960
assI32
(dp268
I1
(F194679731.0
I394205624
F11112.0
tp269
sI100
(F191351672.0
I394205624
F11112.0
tp270
sI1000
(F191494856.0
I394205624
F11112.0
tp271
sI10
(F191353526.0
I394205624
F11112.0
tp272
sg7
(lp273
(lp274
g10
ag11
ag12
ag13
ag14
ag15
ag16
ag17
ag18
ag19
ag20
ag21
ag22
ag23
ag24
ag25
ag26
aa(lp275
g20
ag20
ag20
ag18
ag21
ag23
ag21
ag18
ag20
ag21
ag21
ag18
ag20
ag21
ag21
ag23
ag21
aa(lp276
g20
ag20
ag20
ag18
ag21
ag23
ag18
ag21
ag21
ag21
ag18
ag21
ag20
ag21
ag20
ag23
ag21
aa(lp277
g20
ag23
ag23
ag18
ag21
ag23
ag18
ag21
ag18
ag18
ag20
ag21
ag20
ag21
ag20
ag23
ag21
aa(lp278
g20
ag23
ag23
ag18
ag20
ag23
ag18
ag18
ag20
ag21
ag18
ag18
ag23
ag21
ag23
ag23
ag21
aa(lp279
g20
ag23
ag20
ag18
ag21
ag23
ag18
ag21
ag20
ag21
ag21
ag21
ag21
ag18
ag20
ag20
ag21
aa(lp280
g20
ag20
ag20
ag18
ag21
ag20
ag18
ag21
ag20
ag21
ag21
ag18
ag20
ag21
ag20
ag20
ag21
aa(lp281
g20
ag20
ag20
ag18
ag21
ag20
ag21
ag18
ag20
ag18
ag21
ag21
ag20
ag21
ag20
ag20
ag21
aa(lp282
g20
ag20
ag20
ag18
ag21
ag20
ag21
ag21
ag21
ag18
ag20
ag18
ag20
ag21
ag20
ag20
ag21
aa(lp283
g20
ag20
ag20
ag18
ag21
ag23
ag18
ag21
ag20
ag18
ag20
ag21
ag20
ag18
ag23
ag20
ag21
aa(lp284
g23
ag23
ag23
ag18
ag20
ag23
ag18
ag18
ag20
ag18
ag20
ag18
ag23
ag18
ag23
ag20
ag20
aa(lp285
g23
ag23
ag23
ag18
ag20
ag23
ag19
ag21
ag20
ag21
ag20
ag21
ag20
ag18
ag20
ag20
ag21
aa(lp286
g20
ag20
ag20
ag18
ag21
ag20
ag18
ag21
ag18
ag21
ag21
ag21
ag23
ag21
ag20
ag23
ag21
aa(lp287
g20
ag23
ag23
ag18
ag21
ag23
ag18
ag21
ag20
ag18
ag21
ag18
ag23
ag21
ag20
ag20
ag21
aa(lp288
g23
ag23
ag23
ag18
ag20
ag23
ag18
ag18
ag18
ag18
ag20
ag21
ag20
ag21
ag20
ag20
ag20
aa(lp289
g23
ag23
ag23
ag18
ag20
ag23
ag18
ag18
ag21
ag18
ag20
ag21
ag20
ag21
ag20
ag21
ag21
aa(lp290
g20
ag20
ag20
ag18
ag21
ag20
ag21
ag21
ag21
ag21
ag21
ag18
ag20
ag21
ag20
ag21
ag21
aa(lp291
g20
ag20
ag20
ag18
ag21
ag20
ag21
ag18
ag21
ag21
ag20
ag18
ag20
ag21
ag20
ag20
ag21
aa(lp292
g20
ag20
ag20
ag18
ag21
ag23
ag18
ag21
ag21
ag18
ag21
ag21
ag23
ag21
ag20
ag20
ag21
aa(lp293
g20
ag20
ag20
ag18
ag21
ag23
ag21
ag21
ag21
ag18
ag21
ag18
ag20
ag21
ag20
ag23
ag21
aa(lp294
g20
ag23
ag20
ag18
ag21
ag23
ag21
ag18
ag20
ag21
ag18
ag21
ag23
ag18
ag20
ag23
ag21
aa(lp295
g20
ag23
ag23
ag18
ag20
ag23
ag18
ag21
ag21
ag21
ag21
ag18
ag20
ag18
ag20
ag23
ag21
aa(lp296
g23
ag23
ag23
ag18
ag21
ag23
ag21
ag21
ag20
ag21
ag21
ag19
ag20
ag21
ag20
ag20
ag21
aa(lp297
g20
ag20
ag20
ag18
ag21
ag20
ag18
ag21
ag21
ag21
ag20
ag21
ag20
ag18
ag20
ag20
ag21
aa(lp298
g20
ag23
ag20
ag18
ag21
ag23
ag18
ag21
ag21
ag21
ag20
ag21
ag20
ag18
ag21
ag20
ag21
aa(lp299
g20
ag23
ag23
ag18
ag20
ag23
ag18
ag21
ag21
ag19
ag20
ag21
ag23
ag21
ag20
ag20
ag20
aa(lp300
g23
ag23
ag23
ag18
ag20
ag23
ag18
ag18
ag18
ag21
ag20
ag18
ag23
ag21
ag20
ag23
ag21
aa(lp301
g20
ag20
ag20
ag18
ag21
ag23
ag18
ag18
ag21
ag21
ag21
ag21
ag23
ag21
ag20
ag20
ag21
aa(lp302
g23
ag23
ag23
ag18
ag21
ag23
ag18
ag21
ag21
ag18
ag20
ag18
ag23
ag21
ag21
ag23
ag21
aa(lp303
g20
ag23
ag23
ag18
ag21
ag23
ag21
ag18
ag21
ag21
ag21
ag21
ag21
ag18
ag20
ag23
ag21
aa(lp304
g20
ag23
ag23
ag18
ag21
ag23
ag18
ag21
ag20
ag18
ag18
ag21
ag20
ag21
ag20
ag23
ag21
aa(lp305
g20
ag23
ag20
ag18
ag21
ag23
ag18
ag21
ag21
ag21
ag20
ag18
ag21
ag21
ag20
ag20
ag21
aa(lp306
g20
ag23
ag23
ag18
ag20
ag23
ag18
ag18
ag20
ag18
ag20
ag21
ag20
ag18
ag20
ag23
ag21
aasg91
(lp307
I2989
aI4385
aI4228
aI2827
aI4385
aI3570
aI3907
aI2893
aI3159
aI4152
aI3553
aI3741
aI4374
aI3280
aI3842
aI2567
aI3269
aI4438
aI3186
aI3347
aI3493
aI2772
aI3946
aI3557
aI2899
aI3866
aI4555
aI3508
aI3484
aI3739
aI2406
aI3821
assI2
(dp308
I1
(F191942797.0
I394205624
F696.0
tp309
sI100
(F191301646.0
I394205624
F696.0
tp310
sI1000
(F191339604.0
I394205624
F696.0
tp311
sI10
(F191260073.0
I394205624
F696.0
tp312
sg7
(lp313
(lp314
g10
ag11
ag12
ag13
ag14
ag15
ag16
ag17
ag18
ag19
ag20
ag21
ag22
ag23
ag24
ag25
ag26
aa(lp315
g23
ag23
ag23
ag18
ag20
ag23
ag18
ag18
ag21
ag18
ag21
ag21
ag20
ag21
ag20
ag20
ag21
aa(lp316
g23
ag23
ag23
ag18
ag20
ag23
ag18
ag18
ag21
ag21
ag21
ag18
ag20
ag21
ag20
ag20
ag21
aasg91
(lp317
I49062
aI65076
assI4
(dp318
I1
(F192981926.0
I394205624
F1387.0
tp319
sI100
(F191778952.0
I394205624
F1387.0
tp320
sI1000
(F191841521.0
I394205624
F1387.0
tp321
sI10
(F191670136.0
I394205624
F1387.0
tp322
sg7
(lp323
(lp324
g10
ag11
ag12
ag13
ag14
ag15
ag16
ag17
ag18
ag19
ag20
ag21
ag22
ag23
ag24
ag25
ag26
aa(lp325
g20
ag20
ag20
ag18
ag21
ag20
ag18
ag21
ag21
ag21
ag20
ag21
ag20
ag18
ag20
ag20
ag21
aa(lp326
g20
ag23
ag23
ag18
ag20
ag23
ag18
ag18
ag21
ag21
ag21
ag21
ag20
ag18
ag20
ag23
ag21
aa(lp327
g23
ag23
ag23
ag18
ag21
ag23
ag18
ag18
ag20
ag21
ag21
ag18
ag20
ag21
ag20
ag20
ag21
aa(lp328
g20
ag23
ag20
ag18
ag21
ag23
ag18
ag21
ag21
ag18
ag21
ag21
ag20
ag21
ag20
ag20
ag21
aasg91
(lp329
I32768
aI29552
aI22588
aI29230
assI8
(dp330
I1
(F193683325.0
I394205624
F2779.0
tp331
sI100
(F191790180.0
I394205624
F2779.0
tp332
sI1000
(F191838664.0
I394205624
F2779.0
tp333
sI10
(F191698585.0
I394205624
F2779.0
tp334
sg7
(lp335
(lp336
g10
ag11
ag12
ag13
ag14
ag15
ag16
ag17
ag18
ag19
ag20
ag21
ag22
ag23
ag24
ag25
ag26
aa(lp337
g23
ag23
ag23
ag18
ag21
ag23
ag18
ag18
ag21
ag21
ag18
ag21
ag23
ag21
ag20
ag23
ag21
aa(lp338
g23
ag23
ag23
ag18
ag21
ag23
ag18
ag18
ag20
ag21
ag21
ag18
ag20
ag21
ag20
ag20
ag21
aa(lp339
g20
ag23
ag20
ag18
ag21
ag23
ag18
ag21
ag21
ag18
ag21
ag21
ag20
ag21
ag20
ag20
ag21
aa(lp340
g23
ag23
ag23
ag18
ag21
ag23
ag18
ag21
ag18
ag18
ag20
ag21
ag20
ag21
ag20
ag20
ag21
aa(lp341
g20
ag23
ag20
ag18
ag21
ag23
ag18
ag21
ag21
ag21
ag21
ag18
ag20
ag21
ag20
ag20
ag21
aa(lp342
g20
ag23
ag20
ag18
ag21
ag23
ag21
ag18
ag21
ag21
ag21
ag18
ag20
ag21
ag20
ag20
ag21
aa(lp343
g23
ag23
ag23
ag18
ag20
ag23
ag18
ag21
ag20
ag18
ag20
ag18
ag20
ag18
ag20
ag20
ag21
aa(lp344
g23
ag23
ag23
ag18
ag21
ag23
ag18
ag21
ag21
ag21
ag21
ag21
ag21
ag18
ag20
ag20
ag21
aasg91
(lp345
I13023
aI15917
aI14302
aI14522
aI15308
aI14188
aI15402
aI11476
assI16
(dp346
I1
(F194111038.0
I394205624
F5552.0
tp347
sI100
(F191614084.0
I394205624
F5552.0
tp348
sI1000
(F191746847.0
I394205624
F5552.0
tp349
sI10
(F191554188.0
I394205624
F5552.0
tp350
sg7
(lp351
(lp352
g10
ag11
ag12
ag13
ag14
ag15
ag16
ag17
ag18
ag19
ag20
ag21
ag22
ag23
ag24
ag25
ag26
aa(lp353
g20
ag20
ag20
ag18
ag21
ag20
ag18
ag21
ag20
ag21
ag21
ag18
ag20
ag21
ag20
ag20
ag21
aa(lp354
g23
ag23
ag23
ag18
ag20
ag23
ag21
ag18
ag18
ag18
ag20
ag18
ag20
ag21
ag20
ag20
ag20
aa(lp355
g20
ag23
ag23
ag18
ag21
ag23
ag18
ag21
ag18
ag18
ag20
ag21
ag20
ag21
ag20
ag23
ag21
aa(lp356
g20
ag20
ag20
ag18
ag21
ag20
ag21
ag18
ag20
ag21
ag21
ag18
ag20
ag21
ag20
ag20
ag21
aa(lp357
g23
ag23
ag23
ag18
ag21
ag23
ag18
ag21
ag20
ag18
ag21
ag21
ag20
ag18
ag20
ag20
ag21
aa(lp358
g20
ag20
ag20
ag18
ag21
ag20
ag18
ag21
ag18
ag21
ag21
ag21
ag23
ag21
ag20
ag23
ag21
aa(lp359
g20
ag20
ag20
ag18
ag21
ag23
ag18
ag21
ag21
ag21
ag20
ag18
ag23
ag21
ag21
ag20
ag21
aa(lp360
g20
ag20
ag20
ag18
ag21
ag20
ag21
ag21
ag21
ag18
ag20
ag18
ag20
ag21
ag20
ag20
ag21
aa(lp361
g20
ag20
ag20
ag18
ag21
ag23
ag18
ag18
ag20
ag18
ag20
ag21
ag23
ag21
ag20
ag20
ag21
aa(lp362
g23
ag23
ag23
ag18
ag21
ag23
ag18
ag21
ag21
ag21
ag18
ag21
ag23
ag18
ag20
ag23
ag21
aa(lp363
g20
ag23
ag23
ag18
ag21
ag23
ag18
ag18
ag21
ag18
ag20
ag21
ag23
ag21
ag20
ag20
ag21
aa(lp364
g20
ag20
ag20
ag18
ag21
ag20
ag18
ag21
ag21
ag21
ag21
ag21
ag21
ag21
ag20
ag20
ag21
aa(lp365
g23
ag23
ag23
ag18
ag20
ag23
ag18
ag18
ag20
ag18
ag20
ag21
ag20
ag18
ag20
ag20
ag21
aa(lp366
g20
ag20
ag20
ag18
ag21
ag20
ag21
ag18
ag20
ag21
ag21
ag18
ag20
ag21
ag20
ag20
ag21
aa(lp367
g20
ag23
ag23
ag18
ag20
ag23
ag21
ag18
ag21
ag18
ag18
ag21
ag23
ag21
ag20
ag20
ag21
aa(lp368
g23
ag23
ag23
ag18
ag20
ag23
ag19
ag21
ag21
ag21
ag20
ag21
ag20
ag18
ag20
ag20
ag20
aasg91
(lp369
I7953
aI5616
aI6752
aI6582
aI8388
aI7964
aI6578
aI6844
aI6084
aI6868
aI7445
aI7972
aI7424
aI6528
aI7154
aI7986
asssI10
(dp370
I64
(dp371
I1
(F195804472.0
I394205624
F22236.0
tp372
sI100
(F190759056.0
I394205624
F22236.0
tp373
sI1000
(F190888394.0
I394205624
F22236.0
tp374
sI10
(F190915153.0
I394205624
F22236.0
tp375
sg7
(lp376
(lp377
g10
ag11
ag12
ag13
ag14
ag15
ag16
ag17
ag18
ag19
ag20
ag21
ag22
ag23
ag24
ag25
ag26
aa(lp378
g20
ag23
ag23
ag18
ag21
ag23
ag18
ag21
ag20
ag18
ag21
ag18
ag20
ag21
ag20
ag23
ag21
aa(lp379
g20
ag23
ag20
ag18
ag21
ag23
ag18
ag21
ag21
ag18
ag20
ag21
ag21
ag21
ag20
ag20
ag21
aa(lp380
g20
ag23
ag23
ag18
ag20
ag23
ag18
ag18
ag20
ag18
ag20
ag18
ag20
ag21
ag20
ag23
ag21
aa(lp381
g23
ag23
ag23
ag18
ag20
ag23
ag18
ag21
ag21
ag18
ag21
ag18
ag20
ag21
ag20
ag20
ag21
aa(lp382
g23
ag23
ag23
ag18
ag20
ag23
ag18
ag18
ag21
ag21
ag21
ag18
ag20
ag21
ag21
ag20
ag20
aa(lp383
g20
ag23
ag23
ag18
ag20
ag23
ag18
ag18
ag20
ag21
ag18
ag18
ag20
ag21
ag20
ag23
ag20
aa(lp384
g23
ag23
ag23
ag18
ag20
ag23
ag18
ag18
ag20
ag18
ag20
ag18
ag23
ag18
ag20
ag23
ag20
aa(lp385
g23
ag23
ag23
ag18
ag21
ag23
ag18
ag21
ag20
ag18
ag21
ag21
ag20
ag18
ag20
ag20
ag21
aa(lp386
g20
ag20
ag20
ag18
ag21
ag20
ag18
ag21
ag20
ag21
ag21
ag21
ag20
ag18
ag20
ag20
ag21
aa(lp387
g20
ag23
ag20
ag18
ag21
ag23
ag18
ag21
ag20
ag18
ag20
ag18
ag20
ag21
ag20
ag20
ag21
aa(lp388
g23
ag23
ag23
ag18
ag21
ag23
ag18
ag21
ag21
ag21
ag21
ag18
ag20
ag21
ag21
ag20
ag21
aa(lp389
g20
ag23
ag20
ag18
ag21
ag23
ag18
ag18
ag20
ag21
ag20
ag21
ag20
ag18
ag20
ag20
ag21
aa(lp390
g23
ag23
ag23
ag18
ag20
ag23
ag18
ag21
ag18
ag18
ag21
ag21
ag20
ag21
ag20
ag20
ag21
aa(lp391
g20
ag20
ag20
ag18
ag21
ag20
ag18
ag21
ag21
ag21
ag20
ag21
ag20
ag18
ag20
ag20
ag21
aa(lp392
g23
ag23
ag23
ag18
ag21
ag23
ag21
ag18
ag20
ag18
ag21
ag18
ag20
ag21
ag20
ag20
ag21
aa(lp393
g20
ag23
ag23
ag18
ag20
ag23
ag21
ag18
ag21
ag18
ag21
ag18
ag20
ag21
ag20
ag23
ag21
aa(lp394
g23
ag23
ag23
ag18
ag20
ag23
ag18
ag21
ag21
ag18
ag20
ag18
ag20
ag18
ag20
ag20
ag20
aa(lp395
g20
ag23
ag20
ag18
ag21
ag23
ag21
ag21
ag21
ag18
ag18
ag21
ag20
ag21
ag20
ag20
ag21
aa(lp396
g23
ag23
ag23
ag18
ag21
ag23
ag18
ag18
ag21
ag18
ag20
ag21
ag20
ag21
ag20
ag20
ag21
aa(lp397
g20
ag20
ag20
ag18
ag21
ag20
ag21
ag21
ag21
ag18
ag21
ag18
ag23
ag21
ag20
ag23
ag21
aa(lp398
g23
ag23
ag23
ag18
ag21
ag23
ag18
ag21
ag21
ag21
ag20
ag18
ag20
ag18
ag20
ag20
ag21
aa(lp399
g23
ag23
ag23
ag18
ag20
ag23
ag18
ag18
ag20
ag21
ag21
ag18
ag21
ag21
ag20
ag20
ag21
aa(lp400
g20
ag23
ag20
ag18
ag21
ag23
ag18
ag21
ag21
ag18
ag21
ag21
ag20
ag21
ag20
ag20
ag21
aa(lp401
g23
ag23
ag23
ag18
ag21
ag23
ag18
ag21
ag21
ag21
ag21
ag18
ag23
ag18
ag20
ag23
ag21
aa(lp402
g23
ag23
ag23
ag18
ag20
ag23
ag18
ag18
ag20
ag21
ag20
ag18
ag20
ag18
ag20
ag20
ag21
aa(lp403
g20
ag23
ag23
ag18
ag21
ag23
ag18
ag21
ag21
ag18
ag20
ag18
ag20
ag21
ag20
ag23
ag21
aa(lp404
g20
ag23
ag20
ag18
ag21
ag23
ag21
ag18
ag20
ag18
ag20
ag18
ag20
ag21
ag20
ag20
ag21
aa(lp405
g20
ag23
ag20
ag18
ag21
ag23
ag21
ag18
ag21
ag21
ag21
ag18
ag20
ag21
ag20
ag20
ag21
aa(lp406
g20
ag23
ag20
ag18
ag21
ag23
ag18
ag18
ag20
ag21
ag20
ag18
ag20
ag21
ag20
ag20
ag21
aa(lp407
g23
ag23
ag23
ag18
ag20
ag23
ag18
ag21
ag21
ag18
ag20
ag18
ag20
ag21
ag21
ag20
ag21
aa(lp408
g23
ag23
ag23
ag18
ag20
ag23
ag18
ag18
ag21
ag18
ag20
ag21
ag20
ag21
ag20
ag21
ag21
aa(lp409
g20
ag20
ag20
ag18
ag21
ag20
ag18
ag21
ag21
ag21
ag21
ag21
ag20
ag21
ag20
ag21
ag21
aa(lp410
g23
ag23
ag23
ag18
ag21
ag23
ag18
ag18
ag21
ag18
ag20
ag21
ag20
ag21
ag20
ag20
ag21
aa(lp411
g23
ag23
ag23
ag18
ag20
ag23
ag18
ag21
ag21
ag18
ag21
ag18
ag20
ag21
ag20
ag20
ag21
aa(lp412
g20
ag20
ag20
ag18
ag21
ag20
ag18
ag21
ag20
ag21
ag21
ag18
ag20
ag21
ag20
ag20
ag21
aa(lp413
g23
ag23
ag23
ag18
ag21
ag23
ag18
ag18
ag20
ag18
ag21
ag21
ag20
ag21
ag20
ag20
ag21
aa(lp414
g20
ag23
ag23
ag18
ag20
ag23
ag21
ag18
ag18
ag18
ag20
ag18
ag20
ag21
ag20
ag23
ag20
aa(lp415
g20
ag23
ag23
ag18
ag21
ag23
ag18
ag21
ag20
ag21
ag21
ag18
ag20
ag18
ag20
ag23
ag21
aa(lp416
g20
ag20
ag20
ag18
ag21
ag23
ag18
ag21
ag21
ag21
ag21
ag18
ag20
ag21
ag20
ag23
ag21
aa(lp417
g20
ag20
ag20
ag18
ag21
ag20
ag18
ag18
ag20
ag21
ag21
ag21
ag20
ag21
ag20
ag20
ag21
aa(lp418
g23
ag23
ag23
ag18
ag21
ag23
ag18
ag18
ag20
ag21
ag21
ag21
ag20
ag18
ag20
ag20
ag21
aa(lp419
g23
ag23
ag23
ag18
ag20
ag23
ag18
ag18
ag21
ag21
ag21
ag21
ag20
ag18
ag20
ag20
ag21
aa(lp420
g20
ag20
ag20
ag18
ag21
ag20
ag18
ag21
ag21
ag18
ag20
ag21
ag20
ag21
ag20
ag20
ag21
aa(lp421
g20
ag23
ag20
ag18
ag21
ag23
ag18
ag21
ag18
ag18
ag20
ag21
ag20
ag21
ag23
ag23
ag21
aa(lp422
g20
ag23
ag23
ag18
ag20
ag23
ag18
ag18
ag20
ag21
ag21
ag18
ag20
ag21
ag21
ag23
ag21
aa(lp423
g20
ag23
ag23
ag18
ag20
ag23
ag18
ag18
ag21
ag21
ag21
ag18
ag20
ag21
ag20
ag23
ag21
aa(lp424
g23
ag23
ag23
ag18
ag21
ag23
ag18
ag18
ag20
ag18
ag20
ag21
ag20
ag21
ag21
ag20
ag21
aa(lp425
g23
ag23
ag23
ag18
ag20
ag23
ag18
ag18
ag21
ag21
ag21
ag18
ag20
ag21
ag20
ag20
ag21
aa(lp426
g20
ag20
ag20
ag18
ag21
ag20
ag18
ag21
ag21
ag21
ag20
ag21
ag20
ag18
ag20
ag20
ag21
aa(lp427
g23
ag23
ag23
ag18
ag21
ag23
ag18
ag18
ag21
ag18
ag20
ag21
ag20
ag21
ag20
ag20
ag21
aa(lp428
g20
ag20
ag20
ag18
ag21
ag20
ag18
ag21
ag20
ag21
ag21
ag18
ag20
ag21
ag20
ag20
ag21
aa(lp429
g20
ag23
ag20
ag18
ag21
ag23
ag18
ag18
ag20
ag21
ag20
ag18
ag20
ag21
ag20
ag20
ag21
aa(lp430
g20
ag23
ag23
ag18
ag21
ag23
ag18
ag18
ag21
ag21
ag20
ag18
ag20
ag21
ag20
ag23
ag21
aa(lp431
g20
ag23
ag20
ag18
ag21
ag23
ag21
ag18
ag21
ag18
ag20
ag21
ag23
ag18
ag20
ag23
ag21
aa(lp432
g23
ag23
ag23
ag18
ag21
ag23
ag21
ag18
ag20
ag18
ag21
ag21
ag20
ag18
ag20
ag20
ag21
aa(lp433
g20
ag23
ag23
ag18
ag21
ag23
ag18
ag18
ag20
ag21
ag21
ag18
ag20
ag21
ag20
ag23
ag21
aa(lp434
g20
ag23
ag23
ag18
ag20
ag23
ag19
ag21
ag20
ag21
ag20
ag18
ag20
ag21
ag20
ag23
ag21
aa(lp435
g23
ag23
ag23
ag18
ag20
ag23
ag18
ag18
ag21
ag18
ag21
ag18
ag23
ag21
ag20
ag23
ag20
aa(lp436
g20
ag23
ag23
ag18
ag21
ag23
ag18
ag21
ag20
ag18
ag21
ag18
ag20
ag21
ag20
ag23
ag21
aa(lp437
g20
ag20
ag20
ag18
ag21
ag23
ag18
ag21
ag21
ag21
ag21
ag18
ag20
ag21
ag20
ag23
ag21
aa(lp438
g20
ag23
ag23
ag18
ag20
ag23
ag18
ag18
ag20
ag18
ag21
ag18
ag23
ag21
ag20
ag20
ag20
aa(lp439
g20
ag20
ag20
ag18
ag21
ag23
ag18
ag18
ag20
ag21
ag20
ag18
ag20
ag21
ag20
ag23
ag21
aa(lp440
g20
ag23
ag20
ag18
ag21
ag23
ag21
ag18
ag21
ag18
ag21
ag21
ag20
ag21
ag20
ag20
ag21
aa(lp441
g20
ag23
ag20
ag18
ag21
ag23
ag18
ag21
ag20
ag21
ag21
ag21
ag21
ag18
ag20
ag20
ag21
aasg91
(lp442
I226
aI177
aI239
aI192
aI177
aI128
aI173
aI142
aI188
aI179
aI150
aI175
aI199
aI147
aI145
aI186
aI168
aI113
aI165
aI120
aI181
aI151
aI238
aI179
aI161
aI171
aI202
aI154
aI120
aI164
aI173
aI162
aI187
aI238
aI138
aI210
aI173
aI158
aI166
aI206
aI120
aI192
aI174
aI132
aI135
aI201
aI164
aI215
aI184
aI206
aI206
aI224
aI153
aI206
aI219
aI198
aI173
aI236
aI200
aI201
aI181
aI183
aI198
aI191
assI32
(dp443
I1
(F195102194.0
I394205624
F11104.0
tp444
sI100
(F190939445.0
I394205624
F11104.0
tp445
sI1000
(F191050621.0
I394205624
F11104.0
tp446
sI10
(F191030860.0
I394205624
F11104.0
tp447
sg7
(lp448
(lp449
g10
ag11
ag12
ag13
ag14
ag15
ag16
ag17
ag18
ag19
ag20
ag21
ag22
ag23
ag24
ag25
ag26
aa(lp450
g23
ag23
ag23
ag18
ag20
ag23
ag21
ag18
ag21
ag18
ag21
ag18
ag20
ag21
ag20
ag20
ag21
aa(lp451
g20
ag23
ag23
ag18
ag21
ag23
ag18
ag18
ag21
ag18
ag20
ag21
ag20
ag21
ag20
ag23
ag21
aa(lp452
g20
ag20
ag20
ag18
ag21
ag20
ag18
ag21
ag21
ag21
ag21
ag21
ag20
ag21
ag21
ag20
ag21
aa(lp453
g20
ag20
ag20
ag18
ag21
ag23
ag21
ag21
ag21
ag18
ag21
ag18
ag20
ag21
ag20
ag23
ag21
aa(lp454
g23
ag23
ag23
ag18
ag20
ag23
ag18
ag21
ag21
ag18
ag21
ag18
ag20
ag21
ag21
ag20
ag20
aa(lp455
g20
ag20
ag20
ag18
ag21
ag20
ag21
ag21
ag20
ag18
ag21
ag18
ag20
ag21
ag20
ag20
ag21
aa(lp456
g23
ag23
ag23
ag18
ag20
ag23
ag21
ag18
ag21
ag18
ag20
ag18
ag20
ag18
ag20
ag20
ag20
aa(lp457
g23
ag23
ag23
ag18
ag20
ag23
ag21
ag18
ag21
ag18
ag21
ag18
ag20
ag21
ag20
ag20
ag21
aa(lp458
g23
ag23
ag23
ag18
ag20
ag23
ag18
ag18
ag20
ag18
ag20
ag18
ag20
ag21
ag20
ag20
ag21
aa(lp459
g20
ag20
ag20
ag18
ag21
ag20
ag18
ag18
ag20
ag21
ag21
ag21
ag20
ag21
ag20
ag20
ag21
aa(lp460
g20
ag20
ag20
ag18
ag21
ag20
ag18
ag21
ag21
ag18
ag20
ag21
ag20
ag21
ag20
ag20
ag21
aa(lp461
g20
ag23
ag20
ag18
ag21
ag23
ag18
ag21
ag18
ag18
ag20
ag21
ag23
ag21
ag20
ag23
ag21
aa(lp462
g20
ag20
ag20
ag18
ag21
ag20
ag21
ag18
ag20
ag21
ag21
ag18
ag20
ag21
ag20
ag20
ag21
aa(lp463
g20
ag23
ag23
ag18
ag20
ag23
ag18
ag21
ag21
ag21
ag18
ag18
ag20
ag21
ag20
ag23
ag21
aa(lp464
g23
ag23
ag23
ag18
ag21
ag23
ag18
ag18
ag20
ag21
ag21
ag21
ag20
ag18
ag20
ag20
ag21
aa(lp465
g23
ag23
ag23
ag18
ag21
ag23
ag18
ag18
ag21
ag18
ag20
ag21
ag20
ag21
ag20
ag20
ag21
aa(lp466
g20
ag23
ag20
ag18
ag21
ag23
ag18
ag18
ag20
ag21
ag20
ag21
ag20
ag18
ag20
ag20
ag21
aa(lp467
g20
ag23
ag20
ag18
ag21
ag23
ag18
ag21
ag21
ag18
ag21
ag21
ag20
ag21
ag20
ag20
ag21
aa(lp468
g20
ag23
ag23
ag18
ag20
ag23
ag18
ag21
ag21
ag18
ag21
ag18
ag20
ag21
ag20
ag23
ag21
aa(lp469
g20
ag23
ag23
ag18
ag20
ag23
ag18
ag18
ag21
ag21
ag21
ag18
ag20
ag21
ag20
ag23
ag21
aa(lp470
g20
ag23
ag20
ag18
ag21
ag23
ag18
ag18
ag20
ag21
ag20
ag18
ag20
ag21
ag20
ag20
ag21
aa(lp471
g20
ag20
ag20
ag18
ag21
ag20
ag18
ag21
ag20
ag21
ag21
ag18
ag20
ag21
ag20
ag20
ag21
aa(lp472
g20
ag20
ag20
ag18
ag21
ag20
ag18
ag21
ag21
ag21
ag20
ag18
ag20
ag21
ag20
ag20
ag21
aa(lp473
g23
ag23
ag23
ag18
ag21
ag23
ag18
ag21
ag20
ag18
ag21
ag18
ag20
ag21
ag20
ag20
ag21
aa(lp474
g20
ag20
ag20
ag18
ag21
ag20
ag18
ag21
ag20
ag21
ag21
ag18
ag20
ag21
ag20
ag20
ag21
aa(lp475
g23
ag23
ag23
ag18
ag20
ag23
ag18
ag18
ag21
ag18
ag21
ag21
ag20
ag21
ag20
ag21
ag20
aa(lp476
g20
ag23
ag23
ag18
ag20
ag23
ag18
ag21
ag21
ag21
ag21
ag18
ag20
ag18
ag21
ag23
ag20
aa(lp477
g23
ag23
ag23
ag18
ag21
ag23
ag18
ag18
ag21
ag21
ag20
ag18
ag20
ag21
ag20
ag20
ag21
aa(lp478
g20
ag20
ag20
ag18
ag21
ag20
ag18
ag21
ag20
ag21
ag21
ag18
ag20
ag21
ag20
ag20
ag21
aa(lp479
g23
ag23
ag23
ag18
ag20
ag23
ag18
ag18
ag21
ag18
ag21
ag21
ag21
ag21
ag20
ag20
ag20
aa(lp480
g23
ag23
ag23
ag18
ag21
ag23
ag18
ag21
ag21
ag18
ag20
ag21
ag20
ag18
ag20
ag20
ag21
aa(lp481
g23
ag23
ag23
ag18
ag21
ag23
ag18
ag21
ag21
ag18
ag20
ag21
ag20
ag18
ag20
ag20
ag21
aasg91
(lp482
I440
aI440
aI268
aI358
aI363
aI314
aI256
aI352
aI382
aI365
aI393
aI254
aI352
aI330
aI324
aI346
aI386
aI388
aI398
aI405
aI347
aI344
aI409
aI372
aI307
aI357
aI336
aI325
aI443
aI322
aI380
aI357
assI2
(dp483
I1
(F192116351.0
I394205624
F697.0
tp484
sI100
(F191318950.0
I394205624
F697.0
tp485
sI1000
(F191337056.0
I394205624
F697.0
tp486
sI10
(F191322519.0
I394205624
F697.0
tp487
sg7
(lp488
(lp489
g10
ag11
ag12
ag13
ag14
ag15
ag16
ag17
ag18
ag19
ag20
ag21
ag22
ag23
ag24
ag25
ag26
aa(lp490
g23
ag23
ag23
ag18
ag20
ag23
ag18
ag18
ag21
ag18
ag20
ag18
ag20
ag21
ag20
ag20
ag20
aa(lp491
g23
ag23
ag23
ag18
ag20
ag23
ag18
ag18
ag21
ag21
ag21
ag18
ag20
ag21
ag20
ag20
ag21
aasg91
(lp492
I5149
aI6264
assI4
(dp493
I1
(F193042025.0
I394205624
F1388.0
tp494
sI100
(F191210139.0
I394205624
F1388.0
tp495
sI1000
(F191239491.0
I394205624
F1388.0
tp496
sI10
(F191302315.0
I394205624
F1388.0
tp497
sg7
(lp498
(lp499
g10
ag11
ag12
ag13
ag14
ag15
ag16
ag17
ag18
ag19
ag20
ag21
ag22
ag23
ag24
ag25
ag26
aa(lp500
g20
ag23
ag20
ag18
ag21
ag23
ag18
ag21
ag21
ag21
ag21
ag18
ag20
ag21
ag20
ag20
ag21
aa(lp501
g23
ag23
ag23
ag18
ag20
ag23
ag18
ag18
ag21
ag21
ag21
ag18
ag20
ag21
ag20
ag20
ag21
aa(lp502
g20
ag23
ag20
ag18
ag21
ag23
ag18
ag21
ag21
ag21
ag21
ag18
ag20
ag21
ag20
ag20
ag21
aa(lp503
g23
ag23
ag23
ag18
ag20
ag23
ag18
ag21
ag21
ag18
ag21
ag18
ag20
ag21
ag20
ag20
ag21
aasg91
(lp504
I3027
aI2819
aI2709
aI2858
assI8
(dp505
I1
(F193925499.0
I394205624
F2780.0
tp506
sI100
(F191175578.0
I394205624
F2780.0
tp507
sI1000
(F191220040.0
I394205624
F2780.0
tp508
sI10
(F191292464.0
I394205624
F2780.0
tp509
sg7
(lp510
(lp511
g10
ag11
ag12
ag13
ag14
ag15
ag16
ag17
ag18
ag19
ag20
ag21
ag22
ag23
ag24
ag25
ag26
aa(lp512
g23
ag23
ag23
ag18
ag21
ag23
ag18
ag21
ag20
ag21
ag21
ag18
ag20
ag18
ag20
ag20
ag21
aa(lp513
g23
ag23
ag23
ag18
ag20
ag23
ag21
ag18
ag21
ag18
ag21
ag18
ag20
ag21
ag20
ag20
ag21
aa(lp514
g20
ag23
ag23
ag18
ag20
ag23
ag18
ag21
ag21
ag18
ag21
ag18
ag20
ag21
ag20
ag23
ag21
aa(lp515
g23
ag23
ag23
ag18
ag21
ag23
ag18
ag21
ag20
ag18
ag21
ag18
ag20
ag21
ag20
ag20
ag21
aa(lp516
g20
ag23
ag20
ag18
ag21
ag23
ag18
ag21
ag21
ag21
ag21
ag18
ag20
ag21
ag20
ag20
ag21
aa(lp517
g23
ag23
ag23
ag18
ag20
ag23
ag18
ag18
ag21
ag21
ag21
ag18
ag20
ag21
ag20
ag20
ag21
aa(lp518
g23
ag23
ag23
ag18
ag21
ag23
ag18
ag18
ag20
ag21
ag21
ag18
ag20
ag21
ag20
ag20
ag21
aa(lp519
g20
ag23
ag20
ag18
ag21
ag23
ag18
ag21
ag21
ag21
ag21
ag18
ag20
ag21
ag20
ag20
ag21
aasg91
(lp520
I1597
aI1489
aI869
aI1528
aI1424
aI1496
aI1490
aI1520
assI16
(dp521
I1
(F194597450.0
I394205624
F5554.0
tp522
sI100
(F191066242.0
I394205624
F5554.0
tp523
sI1000
(F191156553.0
I394205624
F5554.0
tp524
sI10
(F191165982.0
I394205624
F5554.0
tp525
sg7
(lp526
(lp527
g10
ag11
ag12
ag13
ag14
ag15
ag16
ag17
ag18
ag19
ag20
ag21
ag22
ag23
ag24
ag25
ag26
aa(lp528
g23
ag23
ag23
ag18
ag20
ag23
ag21
ag21
ag21
ag18
ag21
ag18
ag20
ag18
ag20
ag20
ag21
aa(lp529
g20
ag20
ag20
ag18
ag21
ag20
ag18
ag21
ag21
ag21
ag20
ag21
ag20
ag18
ag20
ag20
ag21
aa(lp530
g20
ag23
ag20
ag18
ag21
ag23
ag18
ag21
ag21
ag21
ag21
ag18
ag20
ag21
ag20
ag20
ag21
aa(lp531
g23
ag23
ag23
ag18
ag20
ag23
ag18
ag18
ag21
ag18
ag21
ag21
ag20
ag21
ag20
ag20
ag21
aa(lp532
g20
ag23
ag23
ag18
ag21
ag23
ag18
ag21
ag21
ag18
ag20
ag18
ag20
ag21
ag20
ag23
ag21
aa(lp533
g23
ag23
ag23
ag18
ag20
ag23
ag18
ag18
ag21
ag21
ag21
ag18
ag20
ag21
ag20
ag20
ag21
aa(lp534
g23
ag23
ag23
ag18
ag20
ag23
ag18
ag18
ag21
ag21
ag21
ag18
ag20
ag21
ag20
ag20
ag21
aa(lp535
g20
ag23
ag20
ag18
ag21
ag23
ag18
ag21
ag21
ag21
ag21
ag18
ag20
ag21
ag20
ag20
ag21
aa(lp536
g23
ag23
ag23
ag18
ag20
ag23
ag21
ag18
ag21
ag18
ag21
ag18
ag20
ag21
ag20
ag20
ag21
aa(lp537
g20
ag23
ag20
ag18
ag21
ag23
ag18
ag21
ag21
ag18
ag21
ag21
ag20
ag21
ag20
ag20
ag21
aa(lp538
g23
ag23
ag23
ag18
ag20
ag23
ag18
ag18
ag21
ag18
ag20
ag18
ag20
ag21
ag20
ag20
ag20
aa(lp539
g23
ag23
ag23
ag18
ag21
ag23
ag18
ag21
ag20
ag21
ag21
ag18
ag20
ag18
ag20
ag20
ag21
aa(lp540
g20
ag20
ag20
ag18
ag21
ag20
ag18
ag21
ag21
ag18
ag20
ag21
ag20
ag21
ag20
ag20
ag21
aa(lp541
g23
ag23
ag23
ag18
ag21
ag23
ag18
ag21
ag20
ag18
ag21
ag18
ag20
ag21
ag20
ag20
ag21
aa(lp542
g20
ag23
ag23
ag18
ag21
ag23
ag18
ag18
ag20
ag21
ag21
ag21
ag20
ag18
ag20
ag23
ag21
aa(lp543
g20
ag20
ag20
ag18
ag21
ag20
ag18
ag21
ag20
ag21
ag21
ag18
ag20
ag21
ag20
ag20
ag21
aasg91
(lp544
I579
aI725
aI881
aI718
aI508
aI645
aI692
aI880
aI693
aI639
aI803
aI744
aI811
aI668
aI711
aI716
asssI100
(dp545
I64
(dp546
I1
(F196017905.0
I394205624
F22258.0
tp547
sI100
(F190726526.0
I394205624
F22258.0
tp548
sI1000
(F190812366.0
I394205624
F22258.0
tp549
sI10
(F191010542.0
I394205624
F22258.0
tp550
sg7
(lp551
(lp552
g10
ag11
ag12
ag13
ag14
ag15
ag16
ag17
ag18
ag19
ag20
ag21
ag22
ag23
ag24
ag25
ag26
aa(lp553
g20
ag20
ag20
ag18
ag21
ag23
ag18
ag18
ag20
ag21
ag20
ag18
ag20
ag21
ag20
ag23
ag21
aa(lp554
g20
ag23
ag23
ag18
ag20
ag23
ag18
ag21
ag21
ag18
ag21
ag18
ag20
ag21
ag20
ag23
ag21
aa(lp555
g23
ag23
ag23
ag18
ag21
ag23
ag18
ag18
ag20
ag18
ag21
ag21
ag20
ag21
ag20
ag20
ag21
aa(lp556
g23
ag23
ag23
ag18
ag20
ag23
ag18
ag18
ag21
ag18
ag21
ag18
ag23
ag21
ag20
ag23
ag20
aa(lp557
g20
ag23
ag23
ag18
ag21
ag23
ag18
ag18
ag21
ag21
ag20
ag18
ag20
ag21
ag20
ag23
ag21
aa(lp558
g20
ag23
ag20
ag18
ag21
ag23
ag18
ag21
ag21
ag21
ag20
ag18
ag20
ag21
ag20
ag21
ag21
aa(lp559
g20
ag23
ag23
ag18
ag20
ag23
ag18
ag18
ag20
ag21
ag21
ag18
ag20
ag18
ag20
ag23
ag20
aa(lp560
g23
ag23
ag23
ag18
ag20
ag23
ag18
ag18
ag21
ag21
ag20
ag18
ag20
ag21
ag21
ag20
ag21
aa(lp561
g23
ag23
ag23
ag18
ag20
ag23
ag21
ag18
ag21
ag18
ag20
ag18
ag21
ag21
ag20
ag20
ag21
aa(lp562
g20
ag23
ag20
ag18
ag21
ag23
ag18
ag21
ag21
ag21
ag21
ag18
ag20
ag21
ag20
ag20
ag21
aa(lp563
g20
ag20
ag20
ag18
ag21
ag23
ag18
ag21
ag21
ag21
ag21
ag18
ag20
ag21
ag20
ag23
ag21
aa(lp564
g20
ag23
ag20
ag18
ag21
ag23
ag21
ag18
ag21
ag18
ag20
ag21
ag23
ag18
ag20
ag23
ag21
aa(lp565
g20
ag23
ag23
ag18
ag20
ag23
ag21
ag18
ag21
ag21
ag21
ag18
ag20
ag18
ag20
ag23
ag21
aa(lp566
g20
ag23
ag23
ag18
ag20
ag23
ag18
ag18
ag20
ag21
ag21
ag21
ag21
ag18
ag20
ag23
ag21
aa(lp567
g20
ag23
ag23
ag18
ag21
ag23
ag18
ag21
ag21
ag18
ag20
ag18
ag20
ag21
ag20
ag23
ag21
aa(lp568
g23
ag23
ag23
ag18
ag20
ag23
ag18
ag21
ag18
ag18
ag20
ag18
ag23
ag21
ag20
ag23
ag21
aa(lp569
g20
ag20
ag20
ag18
ag21
ag23
ag18
ag21
ag21
ag18
ag21
ag21
ag20
ag21
ag20
ag23
ag21
aa(lp570
g23
ag23
ag23
ag18
ag20
ag23
ag18
ag18
ag21
ag18
ag21
ag18
ag23
ag21
ag20
ag23
ag20
aa(lp571
g20
ag23
ag20
ag18
ag21
ag23
ag18
ag21
ag20
ag21
ag21
ag21
ag21
ag18
ag20
ag20
ag21
aa(lp572
g23
ag23
ag23
ag18
ag20
ag23
ag18
ag21
ag21
ag21
ag21
ag18
ag23
ag18
ag21
ag23
ag21
aa(lp573
g20
ag20
ag20
ag18
ag21
ag20
ag18
ag18
ag21
ag21
ag20
ag21
ag20
ag21
ag20
ag20
ag21
aa(lp574
g23
ag23
ag23
ag18
ag21
ag23
ag18
ag21
ag21
ag18
ag20
ag18
ag20
ag21
ag20
ag20
ag21
aa(lp575
g20
ag23
ag23
ag18
ag21
ag23
ag18
ag18
ag21
ag21
ag20
ag18
ag20
ag21
ag20
ag23
ag21
aa(lp576
g20
ag23
ag23
ag18
ag20
ag23
ag18
ag21
ag20
ag18
ag21
ag18
ag20
ag21
ag21
ag23
ag21
aa(lp577
g20
ag20
ag20
ag18
ag21
ag23
ag18
ag21
ag21
ag18
ag20
ag21
ag21
ag21
ag20
ag23
ag21
aa(lp578
g20
ag20
ag20
ag18
ag21
ag20
ag21
ag18
ag21
ag21
ag21
ag21
ag20
ag21
ag21
ag20
ag21
aa(lp579
g20
ag23
ag23
ag18
ag20
ag23
ag21
ag18
ag21
ag18
ag21
ag18
ag20
ag21
ag20
ag23
ag21
aa(lp580
g23
ag23
ag23
ag18
ag20
ag23
ag18
ag18
ag20
ag18
ag21
ag18
ag20
ag21
ag20
ag20
ag20
aa(lp581
g20
ag23
ag23
ag18
ag20
ag23
ag19
ag21
ag20
ag21
ag21
ag18
ag20
ag21
ag20
ag23
ag20
aa(lp582
g20
ag23
ag23
ag18
ag21
ag23
ag18
ag21
ag20
ag18
ag21
ag18
ag20
ag21
ag20
ag23
ag21
aa(lp583
g20
ag23
ag23
ag18
ag20
ag23
ag18
ag18
ag21
ag18
ag20
ag18
ag20
ag21
ag20
ag23
ag20
aa(lp584
g20
ag23
ag23
ag18
ag20
ag23
ag18
ag18
ag21
ag21
ag21
ag18
ag20
ag21
ag20
ag23
ag21
aa(lp585
g23
ag23
ag23
ag18
ag20
ag23
ag18
ag21
ag21
ag18
ag21
ag18
ag20
ag21
ag20
ag20
ag21
aa(lp586
g23
ag23
ag23
ag18
ag20
ag23
ag18
ag18
ag20
ag18
ag21
ag18
ag20
ag21
ag20
ag20
ag20
aa(lp587
g23
ag23
ag23
ag18
ag21
ag23
ag18
ag21
ag21
ag18
ag21
ag21
ag20
ag21
ag21
ag20
ag21
aa(lp588
g20
ag23
ag20
ag18
ag21
ag23
ag18
ag21
ag21
ag18
ag20
ag18
ag23
ag21
ag20
ag23
ag21
aa(lp589
g23
ag23
ag23
ag18
ag20
ag23
ag21
ag21
ag21
ag18
ag21
ag18
ag20
ag18
ag20
ag20
ag21
aa(lp590
g20
ag23
ag23
ag18
ag20
ag23
ag18
ag18
ag20
ag21
ag21
ag18
ag20
ag18
ag20
ag23
ag20
aa(lp591
g23
ag23
ag23
ag18
ag21
ag23
ag18
ag18
ag21
ag21
ag20
ag18
ag20
ag21
ag20
ag20
ag21
aa(lp592
g20
ag23
ag20
ag18
ag21
ag23
ag18
ag21
ag20
ag18
ag21
ag21
ag20
ag21
ag20
ag21
ag21
aa(lp593
g23
ag23
ag23
ag18
ag20
ag23
ag18
ag18
ag21
ag18
ag20
ag21
ag20
ag21
ag20
ag21
ag21
aa(lp594
g20
ag23
ag23
ag18
ag20
ag23
ag18
ag18
ag20
ag18
ag20
ag18
ag20
ag21
ag21
ag23
ag20
aa(lp595
g20
ag20
ag20
ag18
ag21
ag20
ag18
ag21
ag20
ag21
ag21
ag18
ag20
ag21
ag20
ag20
ag21
aa(lp596
g23
ag23
ag23
ag18
ag20
ag23
ag18
ag21
ag21
ag21
ag20
ag18
ag20
ag18
ag21
ag20
ag21
aa(lp597
g20
ag20
ag20
ag18
ag21
ag23
ag18
ag21
ag21
ag21
ag21
ag18
ag20
ag21
ag20
ag23
ag21
aa(lp598
g23
ag23
ag23
ag18
ag21
ag23
ag21
ag18
ag21
ag18
ag20
ag18
ag20
ag21
ag20
ag20
ag21
aa(lp599
g20
ag20
ag20
ag18
ag21
ag23
ag21
ag18
ag21
ag21
ag21
ag18
ag20
ag21
ag20
ag23
ag21
aa(lp600
g20
ag23
ag23
ag18
ag20
ag23
ag18
ag18
ag20
ag18
ag20
ag18
ag21
ag21
ag20
ag23
ag20
aa(lp601
g23
ag23
ag23
ag18
ag20
ag23
ag18
ag18
ag20
ag21
ag21
ag18
ag20
ag18
ag20
ag20
ag20
aa(lp602
g20
ag23
ag23
ag18
ag20
ag23
ag18
ag18
ag21
ag21
ag21
ag18
ag20
ag21
ag20
ag23
ag21
aa(lp603
g20
ag23
ag20
ag18
ag21
ag23
ag18
ag21
ag20
ag21
ag21
ag18
ag21
ag21
ag20
ag20
ag21
aa(lp604
g23
ag23
ag23
ag18
ag20
ag23
ag18
ag18
ag20
ag18
ag20
ag18
ag23
ag18
ag20
ag23
ag20
aa(lp605
g20
ag23
ag23
ag18
ag21
ag23
ag18
ag21
ag21
ag18
ag20
ag18
ag20
ag21
ag20
ag23
ag21
aa(lp606
g20
ag23
ag23
ag18
ag20
ag23
ag18
ag18
ag20
ag18
ag21
ag18
ag20
ag21
ag20
ag23
ag20
aa(lp607
g20
ag23
ag23
ag18
ag20
ag23
ag18
ag21
ag21
ag18
ag20
ag18
ag20
ag21
ag21
ag23
ag21
aa(lp608
g20
ag23
ag23
ag18
ag21
ag23
ag18
ag21
ag20
ag18
ag21
ag18
ag20
ag21
ag20
ag23
ag21
aa(lp609
g23
ag23
ag23
ag18
ag21
ag23
ag18
ag21
ag20
ag18
ag21
ag18
ag20
ag21
ag20
ag20
ag21
aa(lp610
g20
ag23
ag23
ag18
ag20
ag23
ag18
ag18
ag21
ag21
ag21
ag18
ag20
ag21
ag20
ag23
ag21
aa(lp611
g20
ag20
ag20
ag18
ag21
ag23
ag18
ag18
ag20
ag21
ag20
ag18
ag20
ag21
ag20
ag23
ag21
aa(lp612
g23
ag23
ag23
ag18
ag21
ag23
ag18
ag21
ag20
ag21
ag21
ag18
ag20
ag18
ag20
ag20
ag21
aa(lp613
g20
ag23
ag20
ag18
ag21
ag23
ag21
ag18
ag21
ag18
ag21
ag21
ag20
ag21
ag20
ag20
ag21
aa(lp614
g23
ag23
ag23
ag18
ag21
ag23
ag18
ag18
ag20
ag21
ag21
ag21
ag20
ag18
ag20
ag20
ag21
aa(lp615
g23
ag23
ag23
ag18
ag20
ag23
ag18
ag21
ag21
ag18
ag21
ag18
ag20
ag21
ag20
ag20
ag21
aa(lp616
g23
ag23
ag23
ag18
ag21
ag23
ag21
ag18
ag20
ag18
ag21
ag18
ag20
ag21
ag20
ag20
ag21
aasg91
(lp617
I18
aI16
aI28
aI22
aI19
aI18
aI14
aI14
aI20
aI20
aI19
aI17
aI9
aI25
aI21
aI17
aI19
aI21
aI21
aI18
aI18
aI19
aI20
aI22
aI14
aI14
aI21
aI21
aI15
aI10
aI15
aI20
aI13
aI17
aI16
aI15
aI18
aI18
aI20
aI34
aI15
aI22
aI13
aI17
aI20
aI15
aI14
aI23
aI19
aI18
aI18
aI18
aI17
aI17
aI14
aI20
aI14
aI20
aI12
aI15
aI19
aI16
aI16
aI13
assI32
(dp618
I1
(F195393106.0
I394205624
F11135.0
tp619
sI100
(F190836469.0
I394205624
F11135.0
tp620
sI1000
(F190911565.0
I394205624
F11135.0
tp621
sI10
(F191113192.0
I394205624
F11135.0
tp622
sg7
(lp623
(lp624
g10
ag11
ag12
ag13
ag14
ag15
ag16
ag17
ag18
ag19
ag20
ag21
ag22
ag23
ag24
ag25
ag26
aa(lp625
g20
ag23
ag20
ag18
ag21
ag23
ag21
ag18
ag21
ag21
ag21
ag18
ag20
ag21
ag20
ag20
ag21
aa(lp626
g23
ag23
ag23
ag18
ag20
ag23
ag18
ag21
ag21
ag18
ag21
ag18
ag20
ag21
ag20
ag20
ag21
aa(lp627
g23
ag23
ag23
ag18
ag21
ag23
ag18
ag21
ag20
ag18
ag21
ag18
ag20
ag21
ag20
ag20
ag21
aa(lp628
g23
ag23
ag23
ag18
ag21
ag23
ag18
ag18
ag21
ag21
ag20
ag18
ag20
ag21
ag20
ag20
ag21
aa(lp629
g23
ag23
ag23
ag18
ag20
ag23
ag18
ag18
ag21
ag18
ag20
ag21
ag20
ag18
ag20
ag20
ag20
aa(lp630
g20
ag23
ag23
ag18
ag20
ag23
ag18
ag21
ag21
ag18
ag21
ag18
ag20
ag21
ag20
ag23
ag21
aa(lp631
g23
ag23
ag23
ag18
ag21
ag23
ag18
ag18
ag20
ag18
ag21
ag21
ag20
ag21
ag20
ag20
ag21
aa(lp632
g20
ag20
ag20
ag18
ag21
ag20
ag18
ag21
ag21
ag21
ag20
ag18
ag20
ag21
ag20
ag20
ag21
aa(lp633
g20
ag23
ag23
ag18
ag21
ag23
ag18
ag21
ag21
ag18
ag20
ag18
ag20
ag21
ag20
ag23
ag21
aa(lp634
g23
ag23
ag23
ag18
ag21
ag23
ag18
ag18
ag20
ag18
ag21
ag21
ag20
ag21
ag20
ag20
ag21
aa(lp635
g20
ag20
ag20
ag18
ag21
ag23
ag18
ag21
ag21
ag21
ag21
ag18
ag20
ag21
ag20
ag23
ag21
aa(lp636
g20
ag23
ag23
ag18
ag20
ag23
ag18
ag21
ag21
ag21
ag21
ag18
ag20
ag18
ag21
ag23
ag20
aa(lp637
g20
ag23
ag23
ag18
ag21
ag23
ag18
ag21
ag20
ag18
ag20
ag18
ag21
ag21
ag20
ag23
ag21
aa(lp638
g23
ag23
ag23
ag18
ag20
ag23
ag18
ag18
ag21
ag21
ag21
ag18
ag23
ag18
ag20
ag23
ag20
aa(lp639
g23
ag23
ag23
ag18
ag20
ag23
ag18
ag18
ag21
ag18
ag20
ag18
ag20
ag21
ag20
ag20
ag20
aa(lp640
g23
ag23
ag23
ag18
ag21
ag23
ag21
ag18
ag21
ag18
ag20
ag18
ag20
ag21
ag20
ag20
ag21
aa(lp641
g20
ag20
ag20
ag18
ag21
ag23
ag18
ag21
ag21
ag21
ag21
ag18
ag20
ag21
ag20
ag23
ag21
aa(lp642
g20
ag23
ag23
ag18
ag21
ag23
ag18
ag18
ag21
ag21
ag20
ag18
ag20
ag21
ag20
ag23
ag21
aa(lp643
g23
ag23
ag23
ag18
ag21
ag23
ag18
ag21
ag21
ag18
ag20
ag18
ag20
ag21
ag20
ag20
ag21
aa(lp644
g23
ag23
ag23
ag18
ag20
ag23
ag18
ag18
ag21
ag21
ag21
ag18
ag20
ag21
ag20
ag20
ag21
aa(lp645
g20
ag23
ag23
ag18
ag20
ag23
ag18
ag18
ag21
ag18
ag20
ag18
ag20
ag21
ag20
ag23
ag20
aa(lp646
g20
ag23
ag23
ag18
ag20
ag23
ag18
ag21
ag21
ag18
ag21
ag18
ag20
ag21
ag20
ag23
ag21
aa(lp647
g23
ag23
ag23
ag18
ag20
ag23
ag18
ag18
ag20
ag21
ag21
ag18
ag20
ag18
ag20
ag20
ag20
aa(lp648
g20
ag23
ag23
ag18
ag20
ag23
ag18
ag18
ag21
ag21
ag21
ag18
ag20
ag21
ag20
ag23
ag21
aa(lp649
g20
ag23
ag23
ag18
ag20
ag23
ag18
ag21
ag21
ag18
ag21
ag18
ag20
ag21
ag20
ag23
ag21
aa(lp650
g23
ag23
ag23
ag18
ag20
ag23
ag18
ag18
ag20
ag18
ag21
ag18
ag23
ag21
ag21
ag23
ag20
aa(lp651
g23
ag23
ag23
ag18
ag20
ag23
ag18
ag18
ag21
ag21
ag20
ag18
ag20
ag21
ag21
ag20
ag21
aa(lp652
g20
ag23
ag23
ag18
ag20
ag23
ag21
ag18
ag21
ag18
ag21
ag18
ag20
ag21
ag20
ag23
ag21
aa(lp653
g23
ag23
ag23
ag18
ag21
ag23
ag18
ag21
ag21
ag21
ag20
ag18
ag20
ag18
ag20
ag20
ag21
aa(lp654
g20
ag20
ag20
ag18
ag21
ag23
ag18
ag21
ag20
ag21
ag21
ag18
ag21
ag21
ag20
ag23
ag21
aa(lp655
g20
ag23
ag23
ag18
ag20
ag23
ag21
ag18
ag21
ag18
ag20
ag18
ag20
ag18
ag20
ag23
ag20
aa(lp656
g20
ag23
ag23
ag18
ag20
ag23
ag18
ag18
ag20
ag21
ag21
ag18
ag20
ag18
ag20
ag23
ag20
aasg91
(lp657
I29
aI38
aI48
aI29
aI36
aI37
aI32
aI46
aI29
aI39
aI37
aI25
aI37
aI35
aI45
aI32
aI39
aI34
aI32
aI39
aI37
aI58
aI31
aI37
aI29
aI39
aI36
aI30
aI31
aI40
aI26
aI29
assI2
(dp658
I1
(F192315329.0
I394205624
F695.0
tp659
sI100
(F191422435.0
I394205624
F695.0
tp660
sI1000
(F191455298.0
I394205624
F695.0
tp661
sI10
(F191449863.0
I394205624
F695.0
tp662
sg7
(lp663
(lp664
g10
ag11
ag12
ag13
ag14
ag15
ag16
ag17
ag18
ag19
ag20
ag21
ag22
ag23
ag24
ag25
ag26
aa(lp665
g20
ag23
ag20
ag18
ag21
ag23
ag18
ag21
ag21
ag21
ag21
ag18
ag20
ag21
ag20
ag20
ag21
aa(lp666
g23
ag23
ag23
ag18
ag20
ag23
ag18
ag18
ag21
ag18
ag20
ag18
ag20
ag21
ag20
ag20
ag20
aasg91
(lp667
I547
aI594
assI4
(dp668
I1
(F193008102.0
I394205624
F1391.0
tp669
sI100
(F191198577.0
I394205624
F1391.0
tp670
sI1000
(F191234480.0
I394205624
F1391.0
tp671
sI10
(F191280145.0
I394205624
F1391.0
tp672
sg7
(lp673
(lp674
g10
ag11
ag12
ag13
ag14
ag15
ag16
ag17
ag18
ag19
ag20
ag21
ag22
ag23
ag24
ag25
ag26
aa(lp675
g23
ag23
ag23
ag18
ag20
ag23
ag18
ag21
ag21
ag18
ag21
ag18
ag20
ag21
ag20
ag20
ag21
aa(lp676
g20
ag23
ag20
ag18
ag21
ag23
ag18
ag21
ag21
ag21
ag21
ag18
ag20
ag21
ag20
ag20
ag21
aa(lp677
g23
ag23
ag23
ag18
ag20
ag23
ag18
ag18
ag21
ag18
ag20
ag18
ag20
ag21
ag20
ag20
ag20
aa(lp678
g23
ag23
ag23
ag18
ag20
ag23
ag18
ag18
ag21
ag21
ag21
ag18
ag20
ag21
ag20
ag20
ag21
aasg91
(lp679
I234
aI369
aI338
aI200
assI8
(dp680
I1
(F194050656.0
I394205624
F2780.0
tp681
sI100
(F191172566.0
I394205624
F2780.0
tp682
sI1000
(F191209276.0
I394205624
F2780.0
tp683
sI10
(F191344184.0
I394205624
F2780.0
tp684
sg7
(lp685
(lp686
g10
ag11
ag12
ag13
ag14
ag15
ag16
ag17
ag18
ag19
ag20
ag21
ag22
ag23
ag24
ag25
ag26
aa(lp687
g20
ag23
ag20
ag18
ag21
ag23
ag18
ag21
ag21
ag21
ag21
ag18
ag20
ag21
ag20
ag20
ag21
aa(lp688
g23
ag23
ag23
ag18
ag20
ag23
ag18
ag18
ag21
ag18
ag20
ag18
ag20
ag21
ag20
ag20
ag20
aa(lp689
g23
ag23
ag23
ag18
ag20
ag23
ag18
ag18
ag21
ag21
ag21
ag18
ag20
ag21
ag20
ag20
ag21
aa(lp690
g23
ag23
ag23
ag18
ag20
ag23
ag18
ag21
ag21
ag18
ag21
ag18
ag20
ag21
ag20
ag20
ag21
aa(lp691
g23
ag23
ag23
ag18
ag20
ag23
ag18
ag21
ag21
ag18
ag21
ag18
ag20
ag21
ag20
ag20
ag21
aa(lp692
g23
ag23
ag23
ag18
ag20
ag23
ag18
ag18
ag21
ag21
ag21
ag18
ag20
ag21
ag20
ag20
ag21
aa(lp693
g20
ag20
ag20
ag18
ag21
ag20
ag18
ag21
ag20
ag21
ag21
ag18
ag20
ag21
ag20
ag20
ag21
aa(lp694
g20
ag23
ag23
ag18
ag21
ag23
ag18
ag21
ag21
ag18
ag20
ag18
ag20
ag21
ag20
ag23
ag21
aasg91
(lp695
I122
aI210
aI120
aI231
aI195
aI120
aI111
aI32
assI16
(dp696
I1
(F194642445.0
I394205624
F5563.0
tp697
sI100
(F190994711.0
I394205624
F5563.0
tp698
sI1000
(F191045726.0
I394205624
F5563.0
tp699
sI10
(F191216348.0
I394205624
F5563.0
tp700
sg7
(lp701
(lp702
g10
ag11
ag12
ag13
ag14
ag15
ag16
ag17
ag18
ag19
ag20
ag21
ag22
ag23
ag24
ag25
ag26
aa(lp703
g23
ag23
ag23
ag18
ag20
ag23
ag18
ag18
ag21
ag18
ag20
ag18
ag20
ag21
ag20
ag20
ag20
aa(lp704
g20
ag23
ag23
ag18
ag20
ag23
ag18
ag21
ag21
ag21
ag21
ag18
ag20
ag18
ag21
ag23
ag20
aa(lp705
g23
ag23
ag23
ag18
ag21
ag23
ag18
ag21
ag21
ag21
ag21
ag18
ag20
ag21
ag20
ag21
ag21
aa(lp706
g20
ag23
ag20
ag18
ag21
ag23
ag18
ag21
ag20
ag21
ag21
ag21
ag21
ag18
ag20
ag20
ag21
aa(lp707
g23
ag23
ag23
ag18
ag20
ag23
ag18
ag18
ag21
ag21
ag21
ag18
ag20
ag21
ag20
ag20
ag21
aa(lp708
g23
ag23
ag23
ag18
ag20
ag23
ag18
ag21
ag21
ag18
ag21
ag18
ag20
ag21
ag20
ag20
ag21
aa(lp709
g20
ag23
ag23
ag18
ag20
ag23
ag21
ag18
ag21
ag18
ag21
ag21
ag20
ag18
ag20
ag23
ag21
aa(lp710
g20
ag23
ag23
ag18
ag20
ag23
ag18
ag21
ag21
ag18
ag21
ag18
ag20
ag21
ag20
ag23
ag21
aa(lp711
g20
ag23
ag23
ag18
ag21
ag23
ag18
ag21
ag21
ag18
ag20
ag18
ag20
ag21
ag20
ag23
ag21
aa(lp712
g23
ag23
ag23
ag18
ag20
ag23
ag18
ag18
ag21
ag21
ag21
ag18
ag20
ag21
ag20
ag20
ag21
aa(lp713
g20
ag23
ag23
ag18
ag21
ag23
ag18
ag18
ag21
ag21
ag20
ag18
ag20
ag21
ag20
ag23
ag21
aa(lp714
g20
ag20
ag20
ag18
ag21
ag23
ag18
ag21
ag21
ag21
ag21
ag18
ag20
ag21
ag20
ag23
ag21
aa(lp715
g23
ag23
ag23
ag18
ag20
ag23
ag21
ag18
ag21
ag18
ag21
ag18
ag20
ag21
ag20
ag20
ag21
aa(lp716
g23
ag23
ag23
ag18
ag20
ag23
ag18
ag21
ag21
ag18
ag21
ag18
ag20
ag21
ag20
ag20
ag21
aa(lp717
g20
ag23
ag20
ag18
ag21
ag23
ag18
ag21
ag21
ag21
ag21
ag18
ag20
ag21
ag20
ag20
ag21
aa(lp718
g23
ag23
ag23
ag18
ag20
ag23
ag18
ag18
ag20
ag21
ag21
ag18
ag20
ag18
ag20
ag20
ag20
aasg91
(lp719
I97
aI51
aI91
aI61
aI89
aI45
aI72
aI73
aI22
aI71
aI74
aI101
aI55
aI91
aI70
aI78
asss.