(dp0
I8
(dp1
I8
(dp2
I1
(F21843985.0
I35815824
F8228.0
tp3
sI2
(F21802341.0
I35815824
F8228.0
tp4
sI4
(F21812228.0
I35815824
F8228.0
tp5
sI8
(F21833004.0
I35815824
F8228.0
tp6
sS'huffman_lengths'
p7
(lp8
(lp9
S'"'
p10
aS'-'
p11
aS','
p12
aS'1'
p13
aS'0'
p14
aS'3'
p15
aS'2'
p16
aS'5'
p17
aS'4'
p18
aS'7'
p19
aS'6'
p20
aS'9'
p21
aS'8'
p22
aS':'
p23
aS'B'
p24
aS'E'
p25
aS'F'
p26
aS'M'
p27
aS'V'
p28
aS'['
p29
aS']'
p30
aS'a'
p31
aS'c'
p32
aS'e'
p33
aS'd'
p34
aS'g'
p35
aS'f'
p36
aS'i'
p37
aS'h'
p38
aS'k'
p39
aS'm'
p40
aS'l'
p41
aS'o'
p42
aS'n'
p43
aS'p'
p44
aS's'
p45
aS'r'
p46
aS'u'
p47
aS't'
p48
aS'w'
p49
aS'v'
p50
aS'y'
p51
aS'x'
p52
aS'{'
p53
aS'}'
p54
aa(lp55
g15
ag19
ag17
ag18
ag17
ag18
ag18
ag17
ag18
ag17
ag17
ag20
ag17
ag17
aS'14'
p56
ag20
aS'15'
p57
ag19
aS'13'
p58
ag21
ag21
ag17
ag17
ag17
ag20
ag19
aS'10'
p59
ag17
aS'12'
p60
aS'12'
p61
ag20
ag20
ag19
ag20
ag19
ag20
ag19
ag17
ag18
aS'12'
p62
ag21
ag19
aS'15'
p63
ag19
ag19
aa(lp64
g15
ag21
ag18
ag17
ag20
ag20
ag20
ag20
ag17
ag20
ag20
ag19
ag20
ag18
aS'10'
p65
ag19
ag21
ag19
ag21
ag22
ag22
ag20
ag18
ag18
ag20
ag22
ag20
ag18
ag22
ag22
ag20
ag20
ag17
ag18
ag20
ag20
ag22
ag20
ag18
ag22
ag22
ag20
aS'10'
p66
ag20
ag20
aa(lp67
g15
ag19
ag17
ag17
ag17
ag17
ag17
ag20
ag17
ag17
ag17
ag20
ag20
ag18
aS'11'
p68
ag20
aS'12'
p69
ag19
aS'10'
p70
ag22
ag22
ag17
ag17
ag18
ag20
ag19
ag19
ag18
ag21
ag21
ag20
ag20
ag20
ag17
ag20
ag20
ag19
ag20
ag18
ag21
ag19
ag20
aS'12'
p71
ag20
ag20
aa(lp72
g15
ag19
ag17
ag18
ag17
ag17
ag17
ag17
ag18
ag18
ag17
ag20
ag17
ag17
aS'14'
p73
ag20
aS'15'
p74
ag19
aS'13'
p75
ag21
ag21
ag17
ag17
ag17
ag20
ag19
aS'10'
p76
ag17
aS'11'
p77
aS'13'
p78
ag20
ag20
ag19
ag20
ag20
ag20
ag19
ag17
ag18
aS'13'
p79
ag21
ag20
aS'15'
p80
ag20
ag20
aa(lp81
g15
ag19
ag17
ag18
ag17
ag17
ag18
ag17
ag18
ag17
ag17
ag20
ag17
ag17
aS'14'
p82
ag20
aS'15'
p83
ag19
aS'13'
p84
ag21
ag21
ag17
ag17
ag17
ag20
ag19
aS'10'
p85
ag17
aS'12'
p86
aS'12'
p87
ag20
ag20
ag19
ag20
ag20
ag20
ag19
ag17
ag18
aS'12'
p88
ag21
ag20
aS'15'
p89
ag20
ag20
aa(lp90
g15
ag19
ag17
ag18
ag17
ag18
ag17
ag17
ag18
ag17
ag18
ag20
ag20
ag17
aS'13'
p91
ag20
aS'14'
p92
ag19
aS'12'
p93
aS'10'
p94
ag21
ag17
ag17
ag17
ag20
ag19
aS'10'
p95
ag17
aS'10'
p96
aS'12'
p97
ag20
ag20
ag19
ag20
ag19
ag20
ag19
ag17
ag18
aS'12'
p98
ag21
ag20
aS'14'
p99
ag19
ag20
aa(lp100
g15
ag19
ag17
ag18
ag18
ag18
ag17
ag20
ag18
ag17
ag17
ag17
ag17
ag17
aS'15'
p101
ag20
aS'16'
p102
ag19
aS'14'
p103
ag21
ag21
ag17
ag17
ag17
ag20
ag19
aS'10'
p104
ag17
aS'11'
p105
aS'13'
p106
ag20
ag20
ag19
ag20
ag19
ag20
ag19
ag17
ag18
aS'12'
p107
ag21
ag19
aS'16'
p108
ag19
ag19
aa(lp109
g15
ag19
ag17
ag18
ag17
ag19
ag20
ag18
ag18
ag17
ag19
ag18
ag17
ag17
aS'13'
p110
ag20
aS'14'
p111
ag19
aS'11'
p112
aS'10'
p113
ag21
ag17
ag17
ag17
ag20
ag19
ag21
ag17
aS'11'
p114
aS'12'
p115
ag20
ag20
ag19
ag20
ag20
ag17
ag19
ag17
ag18
aS'11'
p116
aS'10'
p117
ag20
aS'14'
p118
ag20
ag20
aasS'train_labels_count'
p119
(lp120
I986
aI426
aI1011
aI1088
aI1356
aI692
aI821
aI121
assI16
(dp121
I1
(F21842458.0
I35815824
F16462.0
tp122
sI2
(F21791272.0
I35815824
F16462.0
tp123
sI4
(F21799531.0
I35815824
F16462.0
tp124
sI8
(F21821962.0
I35815824
F16462.0
tp125
sg7
(lp126
(lp127
g10
ag11
ag12
ag13
ag14
ag15
ag16
ag17
ag18
ag19
ag20
ag21
ag22
ag23
ag24
ag25
ag26
ag27
ag28
ag29
ag30
ag31
ag32
ag33
ag34
ag35
ag36
ag37
ag38
ag39
ag40
ag41
ag42
ag43
ag44
ag45
ag46
ag47
ag48
ag49
ag50
ag51
ag52
ag53
ag54
aa(lp128
g15
ag19
ag17
ag18
ag17
ag18
ag17
ag20
ag18
ag17
ag17
ag17
ag20
ag17
aS'14'
p129
ag20
aS'15'
p130
ag19
aS'13'
p131
ag21
ag21
ag17
ag17
ag17
ag20
ag19
aS'10'
p132
ag17
aS'12'
p133
aS'12'
p134
ag20
ag20
ag19
ag20
ag20
ag17
ag19
ag17
ag18
aS'12'
p135
ag21
ag20
aS'15'
p136
ag20
ag20
aa(lp137
g15
aS'10'
p138
ag18
ag20
ag20
ag20
ag20
ag19
ag20
ag20
ag20
ag19
ag19
ag18
ag21
ag22
ag21
ag22
ag22
ag19
ag22
ag20
ag18
ag18
ag20
ag22
ag20
ag18
ag22
ag19
ag19
ag20
ag17
ag18
ag20
ag20
ag21
ag20
ag18
ag19
ag19
ag17
aS'10'
p139
ag17
ag17
aa(lp140
g15
ag19
ag17
ag17
ag17
ag17
ag20
ag17
ag17
ag17
ag17
ag20
ag20
ag18
aS'11'
p141
ag20
aS'12'
p142
ag19
aS'10'
p143
ag22
ag22
ag17
ag17
ag17
ag17
ag20
ag22
ag18
ag22
aS'10'
p144
ag20
ag17
ag20
ag20
ag20
ag20
ag19
ag17
ag18
aS'10'
p145
ag22
ag20
aS'12'
p146
ag20
ag20
aa(lp147
g15
ag19
ag17
ag18
ag17
ag17
ag20
ag17
ag18
ag18
ag17
ag20
ag17
ag17
aS'16'
p148
ag20
aS'15'
p149
ag19
aS'12'
p150
ag21
ag21
ag17
ag17
ag17
ag20
ag19
aS'10'
p151
ag17
aS'11'
p152
aS'14'
p153
ag20
ag20
ag19
ag20
ag20
ag17
ag19
ag17
ag18
aS'13'
p154
ag21
ag20
aS'16'
p155
ag20
ag20
aa(lp156
g15
ag19
ag17
ag17
ag17
ag17
ag17
ag17
ag18
ag18
ag17
ag17
ag17
ag17
aS'16'
p157
ag20
aS'15'
p158
ag19
aS'12'
p159
ag21
ag21
ag17
ag17
ag17
ag20
ag19
aS'10'
p160
ag17
aS'11'
p161
aS'14'
p162
ag20
ag20
ag19
ag20
ag20
ag17
ag19
ag17
ag18
aS'13'
p163
ag21
ag20
aS'16'
p164
ag20
ag20
aa(lp165
g15
ag19
ag17
ag17
ag18
ag18
ag18
ag22
ag18
ag17
ag17
ag17
ag20
ag17
aS'16'
p166
ag20
aS'17'
p167
ag19
aS'15'
p168
aS'10'
p169
aS'10'
p170
ag17
ag17
ag17
ag20
ag19
aS'11'
p171
ag17
aS'14'
p172
aS'13'
p173
ag20
ag20
ag19
ag20
ag20
ag17
ag19
ag17
ag18
aS'12'
p174
aS'10'
p175
ag19
aS'17'
p176
ag19
ag20
aa(lp177
g15
ag19
ag17
ag18
ag17
ag17
ag18
ag20
ag18
ag17
ag17
ag20
ag17
ag17
aS'14'
p178
ag20
aS'15'
p179
ag19
aS'13'
p180
ag21
ag21
ag17
ag17
ag17
ag20
ag19
aS'10'
p181
ag17
aS'12'
p182
aS'12'
p183
ag20
ag20
ag19
ag20
ag20
ag17
ag19
ag17
ag18
aS'12'
p184
ag21
ag20
aS'15'
p185
ag20
ag20
aa(lp186
g15
ag19
ag17
ag18
ag17
ag19
ag20
ag18
ag18
ag17
ag22
ag18
ag17
ag17
aS'16'
p187
ag20
aS'16'
p188
ag19
aS'13'
p189
aS'10'
p190
aS'10'
p191
ag17
ag17
ag17
ag20
ag19
aS'11'
p192
ag17
aS'13'
p193
aS'14'
p194
ag20
ag20
ag20
ag20
ag20
ag17
ag19
ag17
ag18
aS'13'
p195
aS'10'
p196
ag20
aS'15'
p197
ag20
ag20
aa(lp198
g15
ag22
ag17
ag17
ag20
ag17
ag20
ag20
ag17
ag17
ag20
ag20
ag20
ag18
aS'11'
p199
ag19
aS'10'
p200
ag19
ag21
ag19
ag19
ag17
ag18
ag18
ag20
ag19
ag19
ag18
ag22
ag22
ag20
ag20
ag20
ag17
ag20
ag17
ag22
ag20
ag18
ag22
ag19
ag20
aS'11'
p201
ag20
ag20
aa(lp202
g15
ag19
ag17
ag18
ag17
ag18
ag17
ag17
ag18
ag17
ag18
ag20
ag20
ag17
aS'14'
p203
ag20
aS'15'
p204
ag19
aS'13'
p205
aS'10'
p206
ag21
ag17
ag17
ag17
ag17
ag19
aS'10'
p207
ag17
ag21
aS'12'
p208
ag20
ag20
ag19
ag20
ag19
ag20
ag19
ag17
ag18
aS'11'
p209
aS'10'
p210
ag19
aS'15'
p211
ag19
ag19
aa(lp212
g15
ag19
ag17
ag18
ag17
ag18
ag17
ag17
ag17
ag18
ag17
ag20
ag20
ag17
aS'14'
p213
ag20
aS'15'
p214
ag19
aS'12'
p215
ag21
ag21
ag17
ag17
ag17
ag20
ag19
aS'10'
p216
ag17
aS'12'
p217
aS'13'
p218
ag20
ag20
ag19
ag20
ag20
ag17
ag19
ag17
ag18
aS'12'
p219
ag21
ag20
aS'15'
p220
ag20
ag20
aa(lp221
g15
ag19
ag17
ag18
ag18
ag17
ag17
ag20
ag18
ag17
ag17
ag17
ag17
ag17
aS'13'
p222
ag20
aS'14'
p223
ag19
aS'13'
p224
ag21
ag21
ag17
ag17
ag17
ag20
ag19
aS'10'
p225
ag17
aS'13'
p226
aS'12'
p227
ag20
ag20
ag19
ag20
ag20
ag20
ag19
ag17
ag18
aS'12'
p228
ag21
ag20
aS'14'
p229
ag20
ag20
aa(lp230
g15
ag22
ag17
ag18
ag17
ag20
ag20
ag17
ag17
ag17
ag20
ag17
ag17
ag17
aS'11'
p231
ag20
aS'12'
p232
ag19
ag21
ag22
ag22
ag17
ag17
ag18
ag20
ag19
ag22
ag18
ag21
aS'10'
p233
ag20
ag20
ag20
ag17
ag20
ag17
ag22
ag20
ag18
ag21
ag22
ag20
aS'12'
p234
ag20
ag20
aa(lp235
g15
ag19
ag17
ag18
ag17
ag18
ag18
ag17
ag18
ag17
ag17
ag20
ag17
ag17
aS'13'
p236
ag20
aS'16'
p237
ag19
aS'14'
p238
ag21
ag21
ag17
ag17
ag17
ag20
ag19
aS'10'
p239
ag17
aS'15'
p240
aS'12'
p241
ag20
ag20
ag19
ag20
ag19
ag20
ag19
ag17
ag18
aS'11'
p242
ag21
ag19
aS'16'
p243
ag19
ag19
aa(lp244
g15
ag19
ag17
ag17
ag20
ag17
ag17
ag20
ag17
ag17
ag17
ag20
ag20
ag18
aS'11'
p245
ag20
aS'12'
p246
ag19
aS'10'
p247
ag22
ag19
ag17
ag17
ag18
ag20
ag19
ag19
ag18
ag21
ag21
ag20
ag20
ag20
ag17
ag20
ag17
ag19
ag20
ag18
ag21
ag22
ag20
aS'12'
p248
ag20
ag20
aa(lp249
g15
ag19
ag17
ag18
ag17
ag17
ag17
ag17
ag18
ag17
ag17
ag20
ag17
ag17
aS'13'
p250
ag20
aS'14'
p251
ag20
aS'13'
p252
ag21
ag21
ag17
ag17
ag17
ag20
ag19
aS'10'
p253
ag17
aS'13'
p254
aS'12'
p255
ag20
ag20
ag20
ag20
ag20
ag17
ag19
ag17
ag18
aS'12'
p256
ag21
ag20
aS'14'
p257
ag20
ag20
aasg119
(lp258
I416
aI190
aI303
aI403
aI312
aI324
aI1032
aI92
aI418
aI485
aI381
aI281
aI161
aI660
aI436
aI607
assI2
(dp259
I1
(F21868592.0
I35815824
F2037.0
tp260
sI2
(F21858093.0
I35815824
F2037.0
tp261
sI4
(F21875922.0
I35815824
F2037.0
tp262
sI8
(F21891638.0
I35815824
F2037.0
tp263
sg7
(lp264
(lp265
g10
ag11
ag12
ag13
ag14
ag15
ag16
ag17
ag18
ag19
ag20
ag21
ag22
ag23
ag24
ag25
ag26
ag27
ag28
ag29
ag30
ag31
ag32
ag33
ag34
ag35
ag36
ag37
ag38
ag39
ag40
ag41
ag42
ag43
ag44
ag45
ag46
ag47
ag48
ag49
ag50
ag51
ag52
ag53
ag54
aa(lp266
g15
ag22
ag18
ag17
ag20
ag17
ag17
ag20
ag17
ag17
ag20
ag20
ag20
ag18
aS'11'
p267
ag19
aS'10'
p268
ag19
ag21
ag22
ag22
ag17
ag17
ag18
ag20
ag19
ag19
ag18
ag21
ag21
ag20
ag20
ag20
ag17
ag20
ag17
ag22
ag20
ag18
ag22
ag22
ag20
aS'11'
p269
ag20
ag20
aa(lp270
g15
ag19
ag17
ag18
ag17
ag17
ag17
ag17
ag18
ag17
ag17
ag20
ag17
ag18
aS'13'
p271
ag20
aS'14'
p272
ag19
aS'12'
p273
aS'10'
p274
ag21
ag17
ag17
ag17
ag20
ag19
aS'10'
p275
ag17
aS'10'
p276
aS'12'
p277
ag20
ag20
ag20
ag20
ag20
ag20
ag19
ag17
ag18
aS'12'
p278
ag21
ag20
aS'14'
p279
ag19
ag20
aasg119
(lp280
I1321
aI5180
assI4
(dp281
I1
(F21831312.0
I35815824
F4089.0
tp282
sI2
(F21810566.0
I35815824
F4089.0
tp283
sI4
(F21831026.0
I35815824
F4089.0
tp284
sI8
(F21856967.0
I35815824
F4089.0
tp285
sg7
(lp286
(lp287
g10
ag11
ag12
ag13
ag14
ag15
ag16
ag17
ag18
ag19
ag20
ag21
ag22
ag23
ag24
ag25
ag26
ag27
ag28
ag29
ag30
ag31
ag32
ag33
ag34
ag35
ag36
ag37
ag38
ag39
ag40
ag41
ag42
ag43
ag44
ag45
ag46
ag47
ag48
ag49
ag50
ag51
ag52
ag53
ag54
aa(lp288
g15
ag21
ag18
ag17
ag20
ag20
ag20
ag20
ag17
ag20
ag20
ag19
ag20
ag18
aS'10'
p289
ag19
ag21
ag19
ag21
ag22
ag22
ag20
ag18
ag18
ag20
ag22
ag20
ag18
ag22
ag22
ag20
ag20
ag17
ag18
ag20
ag20
ag22
ag20
ag18
ag22
ag22
ag20
aS'10'
p290
ag20
ag20
aa(lp291
g15
ag19
ag17
ag18
ag17
ag18
ag18
ag17
ag18
ag17
ag17
ag20
ag17
ag17
aS'14'
p292
ag20
aS'15'
p293
ag19
aS'13'
p294
ag21
ag21
ag17
ag17
ag17
ag20
ag19
aS'10'
p295
ag17
aS'12'
p296
aS'12'
p297
ag20
ag20
ag19
ag20
ag19
ag20
ag19
ag17
ag18
aS'12'
p298
ag21
ag19
aS'15'
p299
ag19
ag19
aa(lp300
g15
ag19
ag17
ag17
ag17
ag17
ag17
ag20
ag17
ag17
ag17
ag20
ag20
ag18
aS'11'
p301
ag20
aS'12'
p302
ag19
aS'10'
p303
ag22
ag22
ag17
ag17
ag18
ag20
ag19
ag19
ag18
ag21
ag21
ag20
ag20
ag20
ag17
ag20
ag20
ag19
ag20
ag18
ag21
ag19
ag20
aS'12'
p304
ag20
ag20
aa(lp305
g15
ag19
ag17
ag18
ag17
ag17
ag17
ag17
ag18
ag18
ag17
ag17
ag17
ag17
aS'14'
p306
ag20
aS'15'
p307
ag19
aS'13'
p308
ag21
ag21
ag17
ag17
ag17
ag20
ag19
aS'10'
p309
ag17
aS'11'
p310
aS'13'
p311
ag20
ag20
ag19
ag20
ag20
ag20
ag19
ag17
ag18
aS'13'
p312
ag21
ag19
aS'15'
p313
ag19
ag20
aasg119
(lp314
I426
aI3042
aI1056
aI1977
asssI1
(dp315
I8
(dp316
I1
(F21716553.0
I35815824
F8851.0
tp317
sI2
(F21877305.0
I35815824
F8851.0
tp318
sI4
(F21958970.0
I35815824
F8851.0
tp319
sI8
(F22021241.0
I35815824
F8851.0
tp320
sg7
(lp321
(lp322
g10
ag11
ag12
ag13
ag14
ag15
ag16
ag17
ag18
ag19
ag20
ag21
ag22
ag23
ag24
ag25
ag26
ag27
ag28
ag29
ag30
ag31
ag32
ag33
ag34
ag35
ag36
ag37
ag38
ag39
ag40
ag41
ag42
ag43
ag44
ag45
ag46
ag47
ag48
ag49
ag50
ag51
ag52
ag53
ag54
aa(lp323
g15
ag19
ag17
ag18
ag17
ag17
ag17
ag17
ag18
ag18
ag17
ag20
ag17
ag17
aS'14'
p324
ag20
aS'12'
p325
ag19
aS'15'
p326
aS'11'
p327
ag22
ag17
ag17
ag17
ag17
ag20
aS'17'
p328
ag17
ag21
aS'17'
p329
ag20
ag20
ag19
ag20
ag19
ag20
ag19
ag17
ag18
aS'16'
p330
aS'10'
p331
ag20
aS'13'
p332
ag19
ag19
aa(lp333
g15
aS'17'
p334
ag17
ag19
ag20
ag21
ag21
ag22
ag22
ag22
ag22
ag21
ag21
ag18
aS'14'
p335
aS'11'
p336
aS'12'
p337
aS'18'
p338
aS'10'
p339
ag17
aS'15'
p340
ag17
ag18
ag18
ag20
ag22
ag20
ag15
ag21
ag19
aS'18'
p341
ag20
ag17
ag18
ag20
ag17
aS'16'
p342
ag19
ag18
ag19
ag17
ag17
aS'13'
p343
ag18
ag20
aa(lp344
g15
ag19
ag17
ag17
ag18
ag18
ag17
ag20
ag18
ag17
ag17
ag17
ag20
ag17
aS'14'
p345
ag20
aS'12'
p346
ag19
aS'17'
p347
aS'11'
p348
ag22
ag17
ag17
ag17
ag17
ag20
aS'17'
p349
ag17
ag21
aS'16'
p350
ag20
ag17
ag19
ag20
ag19
ag20
ag19
ag17
ag18
aS'15'
p351
aS'10'
p352
ag20
aS'13'
p353
ag19
ag19
aa(lp354
g15
aS'20'
p355
ag18
ag19
aS'10'
p356
ag19
ag19
ag22
ag22
ag21
ag22
ag22
ag22
ag18
ag19
aS'24'
p357
aS'16'
p358
aS'22'
p359
ag20
aS'21'
p360
aS'15'
p361
aS'11'
p362
ag15
ag15
ag17
aS'12'
p363
ag17
ag18
ag20
aS'14'
p364
aS'23'
p365
ag17
ag17
ag18
ag17
ag19
aS'19'
p366
aS'24'
p367
ag17
aS'13'
p368
aS'18'
p369
ag17
aS'17'
p370
ag17
ag17
aa(lp371
g15
ag19
ag17
ag18
ag17
ag18
ag18
ag17
ag18
ag17
ag17
ag20
ag17
ag17
aS'17'
p372
ag20
aS'16'
p373
ag19
aS'15'
p374
aS'11'
p375
ag22
ag17
ag17
ag17
ag20
ag19
aS'12'
p376
ag17
ag21
aS'14'
p377
ag20
ag20
ag19
ag20
ag19
ag20
ag19
ag17
ag18
aS'13'
p378
aS'10'
p379
ag19
aS'17'
p380
ag19
ag19
aa(lp381
g15
aS'20'
p382
ag17
ag18
ag20
ag18
ag17
ag17
ag18
ag17
ag17
ag17
ag17
ag17
aS'17'
p383
aS'27'
p384
aS'15'
p385
ag17
aS'12'
p386
aS'21'
p387
ag17
ag17
aS'22'
p388
ag17
ag19
ag22
aS'10'
p389
ag17
aS'11'
p390
aS'14'
p391
ag18
aS'23'
p392
aS'25'
p393
ag21
ag17
ag18
aS'19'
p394
aS'27'
p395
ag18
aS'13'
p396
aS'18'
p397
aS'26'
p398
aS'16'
p399
aS'24'
p400
ag17
aa(lp401
g15
ag19
ag17
ag18
ag17
ag17
ag17
ag17
ag18
ag17
ag17
ag17
ag17
ag17
aS'13'
p402
ag20
aS'14'
p403
ag19
aS'17'
p404
aS'11'
p405
ag22
ag17
ag17
ag17
ag17
ag20
aS'17'
p406
ag17
ag21
aS'16'
p407
ag20
ag17
ag19
ag20
ag19
ag20
ag19
ag17
ag18
aS'15'
p408
aS'10'
p409
ag20
aS'12'
p410
ag19
ag19
aa(lp411
g15
aS'22'
p412
ag18
ag19
aS'11'
p413
ag19
ag20
ag21
ag22
aS'10'
p414
ag21
ag21
ag22
ag18
aS'17'
p415
aS'26'
p416
ag20
aS'23'
p417
aS'14'
p418
aS'20'
p419
aS'18'
p420
aS'12'
p421
ag18
ag15
ag17
aS'13'
p422
ag17
ag17
aS'15'
p423
ag20
aS'25'
p424
aS'24'
p425
ag18
ag15
ag17
aS'26'
p426
aS'21'
p427
ag20
ag17
ag17
aS'19'
p428
ag17
aS'16'
p429
ag17
ag17
aasg119
(lp430
I10188
aI2112
aI11619
aI2510
aI14975
aI2113
aI6999
aI1498
assI16
(dp431
I1
(F21742241.0
I35815824
F17920.0
tp432
sI2
(F21912517.0
I35815824
F17920.0
tp433
sI4
(F21977342.0
I35815824
F17920.0
tp434
sI8
(F22034249.0
I35815824
F17920.0
tp435
sg7
(lp436
(lp437
g10
ag11
ag12
ag13
ag14
ag15
ag16
ag17
ag18
ag19
ag20
ag21
ag22
ag23
ag24
ag25
ag26
ag27
ag28
ag29
ag30
ag31
ag32
ag33
ag34
ag35
ag36
ag37
ag38
ag39
ag40
ag41
ag42
ag43
ag44
ag45
ag46
ag47
ag48
ag49
ag50
ag51
ag52
ag53
ag54
aa(lp438
g15
ag19
ag17
ag18
ag17
ag17
ag17
ag17
ag18
ag17
ag17
ag20
ag17
ag18
aS'16'
p439
ag20
aS'15'
p440
ag19
aS'17'
p441
aS'11'
p442
ag22
ag17
ag17
ag17
ag17
ag20
aS'17'
p443
ag17
ag21
aS'13'
p444
ag20
ag20
ag20
ag20
ag19
ag20
ag19
ag17
ag18
aS'12'
p445
aS'10'
p446
ag19
aS'14'
p447
ag19
ag19
aa(lp448
g15
aS'24'
p449
ag18
ag20
aS'10'
p450
ag19
ag20
ag22
ag22
ag21
ag22
ag22
ag22
ag18
aS'16'
p451
aS'12'
p452
aS'18'
p453
aS'25'
p454
aS'15'
p455
aS'14'
p456
aS'22'
p457
aS'11'
p458
ag18
ag15
ag17
aS'26'
p459
ag17
ag18
aS'19'
p460
aS'21'
p461
aS'27'
p462
ag18
ag17
ag18
ag17
ag17
aS'23'
p463
aS'27'
p464
ag18
aS'20'
p465
aS'13'
p466
ag17
aS'17'
p467
ag17
ag17
aa(lp468
g15
ag19
ag17
ag18
ag17
ag20
ag20
ag18
ag18
ag17
ag19
ag18
ag17
ag17
aS'14'
p469
ag20
aS'12'
p470
ag19
aS'11'
p471
aS'17'
p472
ag22
ag17
ag17
ag17
ag17
ag20
aS'17'
p473
ag17
ag21
aS'16'
p474
ag20
ag20
ag20
ag20
ag19
ag20
ag19
ag17
ag18
aS'15'
p475
aS'10'
p476
ag20
aS'13'
p477
ag19
ag19
aa(lp478
g15
aS'24'
p479
ag18
ag22
aS'11'
p480
ag19
ag19
ag21
ag22
aS'10'
p481
aS'10'
p482
aS'10'
p483
ag21
ag18
aS'19'
p484
aS'13'
p485
aS'18'
p486
aS'25'
p487
aS'14'
p488
aS'21'
p489
aS'22'
p490
aS'12'
p491
ag18
ag15
ag17
aS'15'
p492
ag17
ag17
aS'20'
p493
ag17
aS'27'
p494
aS'26'
p495
ag18
ag15
ag17
aS'27'
p496
aS'23'
p497
ag17
ag17
ag17
aS'16'
p498
ag17
aS'17'
p499
ag17
ag17
aa(lp500
g15
ag19
ag17
ag18
ag17
ag17
ag18
ag17
ag18
ag17
ag17
ag20
ag17
ag17
aS'13'
p501
ag20
aS'14'
p502
ag19
aS'17'
p503
aS'11'
p504
ag22
ag17
ag17
ag17
ag17
ag20
aS'17'
p505
ag17
ag21
aS'16'
p506
ag20
ag20
ag20
ag20
ag19
ag20
ag19
ag17
ag18
aS'15'
p507
aS'10'
p508
ag19
aS'12'
p509
ag19
ag19
aa(lp510
g15
aS'17'
p511
ag17
ag19
ag20
ag21
ag21
ag22
ag22
ag22
ag22
ag21
ag21
ag18
aS'14'
p512
aS'11'
p513
aS'12'
p514
aS'18'
p515
aS'10'
p516
ag17
aS'15'
p517
ag17
ag18
ag18
ag20
ag22
ag20
ag15
ag21
ag19
aS'18'
p518
ag20
ag17
ag18
ag20
ag17
aS'16'
p519
ag19
ag18
ag19
ag17
ag17
aS'13'
p520
ag18
ag20
aa(lp521
g15
ag19
ag17
ag17
ag18
ag18
ag17
ag20
ag18
ag17
ag17
ag17
ag17
ag17
aS'16'
p522
ag20
aS'15'
p523
ag19
aS'17'
p524
aS'11'
p525
ag22
ag17
ag17
ag17
ag17
ag20
aS'17'
p526
ag17
ag21
aS'13'
p527
ag20
ag20
ag20
ag20
ag19
ag20
ag19
ag17
ag18
aS'12'
p528
aS'10'
p529
ag19
aS'14'
p530
ag19
ag19
aa(lp531
g15
aS'20'
p532
ag17
ag18
ag20
ag18
ag17
ag17
ag18
ag17
ag17
ag17
ag17
ag17
aS'17'
p533
aS'27'
p534
aS'15'
p535
ag17
aS'12'
p536
aS'21'
p537
ag17
ag17
aS'22'
p538
ag17
ag19
ag22
aS'10'
p539
ag17
aS'11'
p540
aS'14'
p541
ag18
aS'23'
p542
aS'25'
p543
ag21
ag17
ag18
aS'19'
p544
aS'27'
p545
ag18
aS'13'
p546
aS'18'
p547
aS'26'
p548
aS'16'
p549
aS'24'
p550
ag17
aa(lp551
g15
aS'27'
p552
ag18
ag22
ag21
ag21
ag19
ag21
ag22
aS'11'
p553
ag22
aS'10'
p554
ag22
ag18
ag20
aS'12'
p555
aS'22'
p556
aS'28'
p557
aS'21'
p558
aS'18'
p559
aS'17'
p560
aS'14'
p561
ag15
ag15
ag17
aS'19'
p562
ag17
ag18
aS'25'
p563
aS'24'
p564
aS'28'
p565
ag17
ag18
ag18
ag17
aS'15'
p566
aS'26'
p567
aS'13'
p568
ag20
aS'23'
p569
aS'16'
p570
ag18
aS'20'
p571
ag17
ag17
aa(lp572
g15
aS'27'
p573
ag18
ag22
aS'10'
p574
ag19
ag17
ag21
ag19
aS'12'
p575
ag22
aS'11'
p576
ag22
ag18
aS'20'
p577
aS'13'
p578
ag17
aS'28'
p579
aS'22'
p580
aS'17'
p581
aS'18'
p582
aS'29'
p583
ag18
ag15
ag17
aS'16'
p584
ag17
ag17
aS'25'
p585
aS'24'
p586
aS'30'
p587
aS'30'
p588
ag15
ag18
ag17
aS'15'
p589
aS'26'
p590
aS'14'
p591
ag18
aS'23'
p592
aS'19'
p593
ag17
aS'21'
p594
ag17
ag17
aa(lp595
g15
ag19
ag17
ag18
ag17
ag17
ag17
ag17
ag18
ag18
ag17
ag20
ag20
ag17
aS'16'
p596
ag20
aS'15'
p597
ag19
aS'17'
p598
aS'11'
p599
ag22
ag17
ag17
ag17
ag17
ag20
aS'17'
p600
ag17
ag21
aS'13'
p601
ag20
ag17
ag20
ag20
ag19
ag20
ag19
ag17
ag18
aS'12'
p602
aS'10'
p603
ag19
aS'14'
p604
ag19
ag19
aa(lp605
g15
ag19
ag17
ag18
ag17
ag18
ag17
ag20
ag18
ag17
ag17
ag18
ag20
ag17
aS'16'
p606
ag20
aS'15'
p607
ag19
aS'17'
p608
aS'13'
p609
ag22
ag17
ag17
ag17
ag17
ag19
aS'17'
p610
ag17
ag21
aS'12'
p611
ag20
ag20
ag19
ag20
ag19
ag20
ag19
ag17
ag18
aS'11'
p612
aS'10'
p613
ag19
aS'14'
p614
ag19
ag19
aa(lp615
g15
aS'23'
p616
ag18
ag19
aS'10'
p617
ag19
ag19
ag22
ag22
ag22
ag21
ag22
ag22
ag18
aS'16'
p618
aS'17'
p619
aS'13'
p620
aS'24'
p621
ag20
aS'20'
p622
aS'21'
p623
aS'11'
p624
ag18
ag15
ag17
aS'12'
p625
ag17
ag18
ag17
aS'19'
p626
aS'25'
p627
ag17
ag17
ag15
ag17
aS'26'
p628
aS'22'
p629
aS'26'
p630
ag17
aS'18'
p631
aS'15'
p632
ag17
aS'14'
p633
ag17
ag17
aa(lp634
g15
ag19
ag17
ag17
ag17
ag18
ag17
ag20
ag18
ag17
ag18
ag20
ag20
ag18
aS'15'
p635
ag20
aS'16'
p636
ag19
aS'17'
p637
aS'11'
p638
ag22
ag17
ag17
ag17
ag17
ag20
aS'17'
p639
ag17
ag21
aS'13'
p640
ag20
ag20
ag20
ag20
ag19
ag20
ag19
ag17
ag18
aS'12'
p641
aS'10'
p642
ag19
aS'14'
p643
ag19
ag19
aa(lp644
g15
ag19
ag17
ag18
ag17
ag18
ag17
ag17
ag18
ag17
ag17
ag20
ag17
ag17
aS'16'
p645
ag20
aS'15'
p646
ag19
aS'17'
p647
aS'11'
p648
ag22
ag17
ag17
ag17
ag17
ag20
aS'17'
p649
ag17
ag21
aS'13'
p650
ag20
ag20
ag19
ag20
ag19
ag20
ag19
ag17
ag18
aS'12'
p651
aS'10'
p652
ag20
aS'14'
p653
ag19
ag19
aa(lp654
g15
ag19
ag17
ag18
ag17
ag17
ag17
ag17
ag18
ag18
ag17
ag20
ag20
ag17
aS'16'
p655
ag20
aS'15'
p656
ag19
aS'17'
p657
aS'13'
p658
ag22
ag17
ag17
ag17
ag17
ag20
aS'17'
p659
ag17
ag21
aS'12'
p660
ag20
ag17
ag20
ag20
ag19
ag20
ag19
ag17
ag18
aS'11'
p661
aS'10'
p662
ag19
aS'14'
p663
ag19
ag19
aasg119
(lp664
I5304
aI866
aI1169
aI1043
aI7130
aI2112
aI5168
aI2113
aI520
aI455
aI4982
aI4356
aI1124
aI5636
aI5429
aI4607
assI2
(dp665
I1
(F21756055.0
I35815824
F2103.0
tp666
sI2
(F21870517.0
I35815824
F2103.0
tp667
sI4
(F21931479.0
I35815824
F2103.0
tp668
sI8
(F22010148.0
I35815824
F2103.0
tp669
sg7
(lp670
(lp671
g10
ag11
ag12
ag13
ag14
ag15
ag16
ag17
ag18
ag19
ag20
ag21
ag22
ag23
ag24
ag25
ag26
ag27
ag28
ag29
ag30
ag31
ag32
ag33
ag34
ag35
ag36
ag37
ag38
ag39
ag40
ag41
ag42
ag43
ag44
ag45
ag46
ag47
ag48
ag49
ag50
ag51
ag52
ag53
ag54
aa(lp672
g15
aS'14'
p673
ag18
ag19
ag19
ag19
ag19
ag22
ag22
ag21
ag22
ag21
ag21
ag18
ag21
aS'11'
p674
ag21
aS'15'
p675
ag19
ag19
aS'16'
p676
ag20
ag18
ag15
ag17
aS'10'
p677
ag17
ag18
ag19
ag19
aS'16'
p678
ag20
ag17
ag18
ag17
ag20
aS'13'
p679
ag19
ag18
ag19
ag19
ag17
aS'12'
p680
ag17
ag17
aa(lp681
g15
ag19
ag17
ag18
ag17
ag17
ag17
ag17
ag18
ag17
ag17
ag17
ag17
ag17
aS'16'
p682
ag20
aS'17'
p683
ag20
aS'13'
p684
aS'11'
p685
ag22
ag17
ag17
ag17
ag20
ag19
aS'12'
p686
ag17
ag21
aS'15'
p687
ag17
ag20
ag19
ag19
ag20
ag17
ag19
ag17
ag18
aS'14'
p688
aS'10'
p689
ag19
aS'17'
p690
ag19
ag20
aasg119
(lp691
I6120
aI45894
assI4
(dp692
I1
(F21746940.0
I35815824
F4453.0
tp693
sI2
(F21904903.0
I35815824
F4453.0
tp694
sI4
(F21971490.0
I35815824
F4453.0
tp695
sI8
(F22037913.0
I35815824
F4453.0
tp696
sg7
(lp697
(lp698
g10
ag11
ag12
ag13
ag14
ag15
ag16
ag17
ag18
ag19
ag20
ag21
ag22
ag23
ag24
ag25
ag26
ag27
ag28
ag29
ag30
ag31
ag32
ag33
ag34
ag35
ag36
ag37
ag38
ag39
ag40
ag41
ag42
ag43
ag44
ag45
ag46
ag47
ag48
ag49
ag50
ag51
ag52
ag53
ag54
aa(lp699
g15
ag19
ag17
ag18
ag17
ag18
ag17
ag17
ag18
ag17
ag17
ag17
ag17
ag17
aS'16'
p700
ag20
aS'17'
p701
ag19
aS'13'
p702
aS'11'
p703
ag22
ag17
ag17
ag17
ag17
ag19
aS'12'
p704
ag17
ag21
aS'15'
p705
ag20
ag20
ag19
ag20
ag19
ag20
ag19
ag17
ag18
aS'14'
p706
aS'10'
p707
ag19
aS'17'
p708
ag19
ag19
aa(lp709
g15
aS'17'
p710
ag18
ag19
aS'10'
p711
ag19
ag19
ag21
ag22
ag21
ag21
ag21
ag21
ag18
ag22
aS'20'
p712
ag22
aS'18'
p713
ag19
aS'12'
p714
aS'19'
p715
aS'13'
p716
ag18
ag15
ag17
aS'14'
p717
ag17
ag18
ag19
ag19
aS'20'
p718
ag17
ag17
ag15
ag17
ag19
aS'16'
p719
ag19
ag17
ag19
aS'11'
p720
ag17
aS'15'
p721
ag17
ag17
aa(lp722
g15
aS'20'
p723
ag17
ag18
ag20
ag18
ag17
ag17
ag18
ag17
ag17
ag17
ag17
ag17
aS'17'
p724
aS'27'
p725
aS'15'
p726
ag17
aS'12'
p727
aS'21'
p728
ag17
ag17
aS'22'
p729
ag17
ag19
ag22
aS'10'
p730
ag17
aS'11'
p731
aS'14'
p732
ag18
aS'23'
p733
aS'25'
p734
ag21
ag17
ag18
aS'19'
p735
aS'27'
p736
ag18
aS'13'
p737
aS'18'
p738
aS'26'
p739
aS'16'
p740
aS'24'
p741
ag17
aa(lp742
g15
aS'17'
p743
ag17
ag19
ag20
ag21
aS'10'
p744
ag22
ag22
ag21
ag22
ag21
ag21
ag18
aS'14'
p745
aS'11'
p746
aS'12'
p747
aS'18'
p748
aS'10'
p749
ag17
aS'15'
p750
ag17
ag18
ag18
ag20
ag22
ag20
ag15
aS'10'
p751
ag22
aS'18'
p752
ag20
ag20
ag18
ag20
ag17
aS'16'
p753
ag22
ag15
ag22
ag17
ag17
aS'13'
p754
ag17
ag20
aasg119
(lp755
I43781
aI4130
aI2113
aI1990
asssI2
(dp756
I8
(dp757
I1
(F21779437.0
I35815824
F8421.0
tp758
sI2
(F21754795.0
I35815824
F8421.0
tp759
sI4
(F21842194.0
I35815824
F8421.0
tp760
sI8
(F21897558.0
I35815824
F8421.0
tp761
sg7
(lp762
(lp763
g10
ag11
ag12
ag13
ag14
ag15
ag16
ag17
ag18
ag19
ag20
ag21
ag22
ag23
ag24
ag25
ag26
ag27
ag28
ag29
ag30
ag31
ag32
ag33
ag34
ag35
ag36
ag37
ag38
ag39
ag40
ag41
ag42
ag43
ag44
ag45
ag46
ag47
ag48
ag49
ag50
ag51
ag52
ag53
ag54
aa(lp764
g15
ag19
ag17
ag18
ag17
ag17
ag17
ag17
ag18
ag17
ag20
ag17
ag17
ag17
aS'13'
p765
ag20
aS'14'
p766
ag20
aS'15'
p767
aS'11'
p768
ag22
ag17
ag17
ag17
ag20
ag20
aS'17'
p769
ag17
ag21
aS'17'
p770
ag17
ag20
ag19
ag20
ag20
ag17
ag19
ag17
ag18
aS'16'
p771
aS'10'
p772
ag19
aS'12'
p773
ag19
ag20
aa(lp774
g15
aS'17'
p775
ag18
ag19
ag21
ag19
ag19
ag22
ag19
ag22
ag22
ag22
ag22
ag18
ag22
aS'10'
p776
aS'11'
p777
aS'14'
p778
ag19
ag19
aS'16'
p779
ag19
ag18
ag15
ag17
aS'13'
p780
ag17
ag18
ag19
ag22
aS'12'
p781
ag17
ag17
ag18
ag17
ag20
aS'17'
p782
ag22
ag18
ag22
ag19
ag17
aS'15'
p783
ag17
ag17
aa(lp784
g15
ag19
ag17
ag18
ag17
ag18
ag18
ag17
ag18
ag17
ag17
ag20
ag17
ag17
aS'17'
p785
ag20
aS'17'
p786
ag19
aS'15'
p787
aS'11'
p788
ag22
ag17
ag17
ag17
ag20
ag19
aS'12'
p789
ag17
ag21
aS'14'
p790
ag20
ag20
ag19
ag19
ag19
ag20
ag19
ag17
ag18
aS'13'
p791
aS'10'
p792
ag19
aS'16'
p793
ag19
ag20
aa(lp794
g15
ag19
ag17
ag18
ag17
ag17
ag17
ag17
ag18
ag18
ag17
ag20
ag17
ag17
aS'13'
p795
ag20
aS'14'
p796
ag20
aS'16'
p797
aS'12'
p798
ag22
ag17
ag17
ag17
ag20
ag19
aS'11'
p799
ag17
ag21
aS'17'
p800
ag17
ag20
ag19
ag19
ag20
ag20
ag19
ag17
ag18
aS'17'
p801
aS'10'
p802
ag19
aS'15'
p803
ag19
ag20
aa(lp804
g15
ag22
ag17
ag17
ag17
ag17
ag20
ag20
ag17
ag17
ag20
ag20
ag20
ag18
aS'13'
p805
ag19
aS'12'
p806
ag19
aS'11'
p807
ag20
ag22
ag17
ag17
ag18
ag20
ag19
ag19
ag18
aS'10'
p808
aS'10'
p809
ag20
ag20
ag20
ag17
ag20
ag17
ag22
ag20
ag18
aS'10'
p810
ag20
ag20
aS'13'
p811
ag17
ag20
aa(lp812
g15
ag19
ag17
ag17
ag18
ag18
ag17
ag20
ag18
ag17
ag17
ag17
ag20
ag17
aS'13'
p813
ag20
aS'14'
p814
ag19
aS'17'
p815
aS'12'
p816
ag22
ag17
ag17
ag17
ag17
ag20
aS'11'
p817
ag17
ag21
aS'16'
p818
ag20
ag17
ag19
ag20
ag19
ag20
ag19
ag17
ag18
aS'15'
p819
aS'10'
p820
ag20
aS'17'
p821
ag19
ag19
aa(lp822
g15
aS'16'
p823
ag17
ag18
ag20
ag20
ag20
ag20
ag17
ag20
ag20
ag20
ag20
ag18
ag21
aS'14'
p824
aS'12'
p825
ag20
ag22
aS'10'
p826
ag20
ag20
ag17
ag18
ag20
aS'13'
p827
ag20
ag17
ag22
ag19
ag17
ag20
ag17
ag18
ag17
ag17
aS'16'
p828
ag22
ag18
ag19
aS'11'
p829
ag20
aS'15'
p830
ag20
ag17
aa(lp831
g15
aS'20'
p832
ag18
ag19
aS'11'
p833
ag19
ag20
ag21
ag22
aS'10'
p834
ag21
ag21
ag22
ag18
ag22
aS'17'
p835
ag19
aS'16'
p836
ag22
aS'13'
p837
aS'18'
p838
aS'13'
p839
ag18
ag15
ag17
aS'15'
p840
ag17
ag17
ag22
ag20
aS'14'
p841
ag20
ag18
ag15
ag17
ag22
aS'20'
p842
ag19
ag17
ag20
aS'13'
p843
ag17
aS'19'
p844
ag17
ag17
aasg119
(lp845
I2239
aI1185
aI8778
aI5247
aI1377
aI5630
aI732
aI819
assI16
(dp846
I1
(F21788290.0
I35815824
F16897.0
tp847
sI2
(F21752398.0
I35815824
F16897.0
tp848
sI4
(F21839128.0
I35815824
F16897.0
tp849
sI8
(F21881496.0
I35815824
F16897.0
tp850
sg7
(lp851
(lp852
g10
ag11
ag12
ag13
ag14
ag15
ag16
ag17
ag18
ag19
ag20
ag21
ag22
ag23
ag24
ag25
ag26
ag27
ag28
ag29
ag30
ag31
ag32
ag33
ag34
ag35
ag36
ag37
ag38
ag39
ag40
ag41
ag42
ag43
ag44
ag45
ag46
ag47
ag48
ag49
ag50
ag51
ag52
ag53
ag54
aa(lp853
g15
ag19
ag18
ag17
ag17
ag18
ag17
ag20
ag18
ag17
ag18
ag20
ag20
ag17
aS'13'
p854
ag20
aS'14'
p855
ag19
aS'15'
p856
aS'11'
p857
ag22
ag17
ag17
ag17
ag17
ag20
aS'17'
p858
ag17
ag21
aS'17'
p859
ag20
ag20
ag19
ag20
ag20
ag20
ag19
ag17
ag18
aS'16'
p860
aS'10'
p861
ag19
aS'12'
p862
ag19
ag19
aa(lp863
g15
ag19
ag17
ag18
ag17
ag17
ag17
ag17
ag18
ag17
ag17
ag20
ag17
ag17
aS'13'
p864
ag20
aS'14'
p865
ag20
aS'15'
p866
aS'11'
p867
ag22
ag17
ag17
ag17
ag20
ag20
aS'17'
p868
ag17
ag21
aS'17'
p869
ag17
ag20
ag19
ag20
ag20
ag17
ag19
ag17
ag18
aS'16'
p870
aS'10'
p871
ag19
aS'12'
p872
ag19
ag20
aa(lp873
g15
aS'18'
p874
ag17
ag22
ag22
ag19
ag19
ag19
ag19
ag22
ag22
ag22
ag21
ag18
aS'12'
p875
aS'10'
p876
aS'11'
p877
aS'15'
p878
ag19
ag20
aS'16'
p879
ag20
ag18
ag15
ag20
aS'14'
p880
ag20
ag15
ag19
ag19
aS'13'
p881
ag20
ag17
ag18
ag20
ag17
aS'18'
p882
ag19
ag18
ag19
ag20
ag17
aS'17'
p883
ag17
ag20
aa(lp884
g15
ag19
ag17
ag17
ag17
ag17
ag20
ag20
ag17
ag17
ag20
ag20
ag20
ag18
aS'13'
p885
ag20
aS'12'
p886
ag19
aS'11'
p887
ag20
ag21
ag17
ag17
ag18
ag20
ag19
ag19
ag18
aS'10'
p888
ag21
ag20
ag20
ag20
ag17
ag20
ag17
ag19
ag20
ag18
ag21
ag20
ag20
aS'13'
p889
ag20
ag20
aa(lp890
g15
aS'19'
p891
ag18
ag19
ag21
ag19
ag20
ag21
ag22
aS'10'
p892
ag21
ag21
ag22
ag18
ag22
aS'14'
p893
ag19
aS'16'
p894
ag22
aS'12'
p895
aS'17'
p896
aS'12'
p897
ag18
ag15
ag17
aS'15'
p898
ag17
ag17
ag22
ag20
aS'13'
p899
ag19
ag18
ag15
ag17
ag21
aS'19'
p900
ag20
ag17
ag20
aS'12'
p901
ag17
aS'18'
p902
ag17
ag17
aa(lp903
g15
ag19
ag17
ag18
ag17
ag18
ag17
ag20
ag18
ag17
ag17
ag17
ag20
ag17
aS'12'
p904
ag20
aS'13'
p905
ag20
aS'15'
p906
aS'11'
p907
ag22
ag17
ag17
ag17
ag20
ag19
aS'17'
p908
ag17
ag21
aS'17'
p909
ag17
ag20
ag19
ag19
ag20
ag17
ag19
ag17
ag18
aS'16'
p910
aS'10'
p911
ag19
aS'14'
p912
ag19
ag20
aa(lp913
g15
aS'16'
p914
ag17
ag18
ag20
ag20
ag20
ag20
ag17
ag20
ag20
ag20
ag20
ag18
ag21
aS'14'
p915
aS'12'
p916
ag20
ag22
aS'10'
p917
ag20
ag20
ag17
ag18
ag20
aS'13'
p918
ag20
ag17
ag22
ag19
ag17
ag20
ag17
ag18
ag17
ag17
aS'16'
p919
ag22
ag18
ag19
aS'11'
p920
ag20
aS'15'
p921
ag20
ag17
aa(lp922
g15
ag19
ag17
ag18
ag17
ag17
ag17
ag17
ag18
ag18
ag17
ag20
ag17
ag17
aS'13'
p923
ag20
aS'14'
p924
ag20
aS'15'
p925
aS'11'
p926
ag22
ag17
ag17
ag17
ag20
ag19
aS'17'
p927
ag17
ag21
aS'17'
p928
ag17
ag20
ag19
ag19
ag19
ag17
ag19
ag17
ag18
aS'16'
p929
aS'10'
p930
ag19
aS'12'
p931
ag19
ag19
aa(lp932
g15
ag19
ag17
ag18
ag17
ag18
ag18
ag17
ag18
ag17
ag17
ag20
ag17
ag17
aS'13'
p933
ag20
aS'14'
p934
ag20
aS'15'
p935
aS'11'
p936
ag22
ag17
ag17
ag17
ag20
ag19
aS'17'
p937
ag17
ag21
aS'17'
p938
ag20
ag20
ag19
ag19
ag19
ag20
ag19
ag17
ag18
aS'16'
p939
aS'10'
p940
ag19
aS'12'
p941
ag19
ag19
aa(lp942
g15
ag19
ag17
ag18
ag17
ag17
ag17
ag17
ag18
ag18
ag17
ag20
ag20
ag17
aS'12'
p943
ag20
aS'13'
p944
ag20
aS'15'
p945
aS'11'
p946
ag22
ag17
ag17
ag17
ag20
ag19
aS'17'
p947
ag17
ag21
aS'17'
p948
ag17
ag20
ag19
ag19
ag20
ag17
ag19
ag17
ag18
aS'16'
p949
aS'10'
p950
ag19
aS'14'
p951
ag19
ag20
aa(lp952
g15
ag19
ag17
ag18
ag17
ag19
ag20
ag18
ag18
ag17
ag19
ag18
ag17
ag17
aS'13'
p953
ag20
aS'17'
p954
ag20
aS'17'
p955
aS'12'
p956
ag22
ag17
ag17
ag17
ag20
ag19
aS'11'
p957
ag17
ag21
aS'15'
p958
ag17
ag20
ag19
ag19
ag20
ag17
ag19
ag17
ag18
aS'14'
p959
aS'10'
p960
ag19
aS'16'
p961
ag19
ag20
aa(lp962
g15
ag19
ag17
ag17
ag18
ag18
ag17
ag20
ag18
ag17
ag17
ag17
ag17
ag17
aS'13'
p963
ag20
aS'14'
p964
ag19
aS'15'
p965
aS'11'
p966
ag22
ag17
ag17
ag17
ag17
ag20
aS'17'
p967
ag17
ag21
aS'17'
p968
ag20
ag20
ag20
ag20
ag19
ag20
ag19
ag17
ag18
aS'16'
p969
aS'10'
p970
ag19
aS'12'
p971
ag19
ag19
aa(lp972
g15
aS'23'
p973
ag18
ag20
aS'10'
p974
ag19
ag19
ag22
ag22
ag21
ag22
ag22
ag22
ag18
ag22
aS'13'
p975
ag22
aS'15'
p976
ag19
aS'16'
p977
aS'17'
p978
aS'11'
p979
ag18
ag15
ag17
aS'14'
p980
ag17
ag18
ag19
aS'20'
p981
aS'12'
p982
ag17
ag18
ag18
ag17
ag20
aS'22'
p983
aS'23'
p984
ag18
aS'19'
p985
aS'21'
p986
ag17
aS'18'
p987
ag17
ag17
aa(lp988
g15
ag19
ag17
ag18
ag17
ag17
ag18
ag17
ag18
ag17
ag17
ag20
ag17
ag17
aS'13'
p989
ag20
aS'14'
p990
ag19
aS'15'
p991
aS'11'
p992
ag22
ag17
ag17
ag17
ag20
ag19
aS'16'
p993
ag17
ag21
aS'17'
p994
ag17
ag20
ag19
ag19
ag19
ag17
ag19
ag17
ag18
aS'17'
p995
aS'10'
p996
ag19
aS'12'
p997
ag19
ag20
aa(lp998
g15
aS'15'
p999
ag17
ag17
ag17
ag20
ag20
ag20
ag17
ag20
ag19
ag19
ag20
ag18
aS'13'
p1000
ag21
aS'12'
p1001
ag19
ag21
ag20
ag19
ag17
ag17
ag18
ag20
ag19
ag20
ag15
ag21
aS'16'
p1002
ag20
ag20
ag20
ag17
ag20
ag17
aS'14'
p1003
aS'10'
p1004
ag18
aS'16'
p1005
ag20
ag20
aS'11'
p1006
ag17
ag20
aa(lp1007
g15
ag19
ag17
ag18
ag17
ag17
ag17
ag17
ag18
ag17
ag17
ag17
ag17
ag17
aS'13'
p1008
ag20
aS'14'
p1009
ag19
aS'15'
p1010
aS'11'
p1011
ag22
ag17
ag17
ag17
ag17
ag20
aS'17'
p1012
ag17
ag21
aS'17'
p1013
ag20
ag17
ag20
ag20
ag19
ag20
ag19
ag17
ag18
aS'16'
p1014
aS'10'
p1015
ag19
aS'12'
p1016
ag19
ag19
aasg119
(lp1017
I2286
aI2236
aI665
aI925
aI682
aI1823
aI726
aI2250
aI2646
aI1945
aI536
aI2270
aI660
aI3561
aI463
aI2333
assI2
(dp1018
I1
(F21778603.0
I35815824
F2059.0
tp1019
sI2
(F21823110.0
I35815824
F2059.0
tp1020
sI4
(F21875304.0
I35815824
F2059.0
tp1021
sI8
(F21935766.0
I35815824
F2059.0
tp1022
sg7
(lp1023
(lp1024
g10
ag11
ag12
ag13
ag14
ag15
ag16
ag17
ag18
ag19
ag20
ag21
ag22
ag23
ag24
ag25
ag26
ag27
ag28
ag29
ag30
ag31
ag32
ag33
ag34
ag35
ag36
ag37
ag38
ag39
ag40
ag41
ag42
ag43
ag44
ag45
ag46
ag47
ag48
ag49
ag50
ag51
ag52
ag53
ag54
aa(lp1025
g15
ag19
ag17
ag18
ag17
ag17
ag17
ag17
ag18
ag17
ag17
ag17
ag17
ag17
aS'16'
p1026
ag20
aS'15'
p1027
ag19
aS'14'
p1028
ag21
ag21
ag17
ag17
ag17
ag20
ag19
aS'10'
p1029
ag17
aS'11'
p1030
aS'13'
p1031
ag20
ag20
ag20
ag20
ag20
ag17
ag19
ag17
ag18
aS'12'
p1032
ag21
ag20
aS'16'
p1033
ag19
ag20
aa(lp1034
g15
aS'13'
p1035
ag18
ag20
ag19
ag19
ag20
ag19
ag20
ag19
ag19
ag19
ag19
ag18
ag22
aS'11'
p1036
ag21
ag22
ag22
ag19
ag22
ag20
ag18
ag18
ag17
aS'10'
p1037
ag17
ag18
ag22
ag19
ag19
ag20
ag17
ag18
ag17
ag20
aS'13'
p1038
ag19
ag18
ag19
ag19
ag17
aS'12'
p1039
ag17
ag17
aasg119
(lp1040
I22829
aI3178
assI4
(dp1041
I1
(F21775862.0
I35815824
F4171.0
tp1042
sI2
(F21771322.0
I35815824
F4171.0
tp1043
sI4
(F21850450.0
I35815824
F4171.0
tp1044
sI8
(F21900825.0
I35815824
F4171.0
tp1045
sg7
(lp1046
(lp1047
g10
ag11
ag12
ag13
ag14
ag15
ag16
ag17
ag18
ag19
ag20
ag21
ag22
ag23
ag24
ag25
ag26
ag27
ag28
ag29
ag30
ag31
ag32
ag33
ag34
ag35
ag36
ag37
ag38
ag39
ag40
ag41
ag42
ag43
ag44
ag45
ag46
ag47
ag48
ag49
ag50
ag51
ag52
ag53
ag54
aa(lp1048
g15
ag19
ag17
ag18
ag17
ag17
ag17
ag17
ag18
ag18
ag17
ag17
ag17
ag17
aS'16'
p1049
ag20
aS'16'
p1050
ag20
aS'14'
p1051
aS'13'
p1052
ag22
ag17
ag17
ag17
ag20
ag19
aS'12'
p1053
ag17
ag21
aS'12'
p1054
ag17
ag20
ag19
ag19
ag19
ag20
ag19
ag17
ag18
aS'12'
p1055
aS'10'
p1056
ag19
aS'15'
p1057
ag19
ag19
aa(lp1058
g15
ag19
ag17
ag18
ag17
ag18
ag18
ag17
ag18
ag17
ag17
ag20
ag17
ag17
aS'17'
p1059
ag20
aS'17'
p1060
ag19
aS'14'
p1061
aS'11'
p1062
ag22
ag17
ag17
ag17
ag20
ag19
aS'16'
p1063
ag17
ag21
aS'13'
p1064
ag20
ag20
ag19
ag19
ag19
ag20
ag19
ag17
ag18
aS'12'
p1065
aS'10'
p1066
ag19
aS'15'
p1067
ag19
ag20
aa(lp1068
g15
aS'17'
p1069
ag18
ag19
aS'10'
p1070
ag19
ag19
ag22
ag22
ag21
ag22
ag21
ag22
ag18
ag21
aS'11'
p1071
ag22
aS'15'
p1072
ag19
ag22
aS'14'
p1073
ag22
ag18
ag15
ag17
aS'12'
p1074
ag17
ag18
ag19
ag19
aS'16'
p1075
ag20
ag18
ag18
ag17
ag19
aS'17'
p1076
ag19
ag18
ag19
ag22
ag17
aS'13'
p1077
ag17
ag17
aa(lp1078
g15
ag21
ag17
ag17
ag17
ag17
ag20
ag20
ag17
ag20
ag20
ag20
ag20
ag18
aS'11'
p1079
ag19
aS'12'
p1080
ag19
aS'10'
p1081
ag19
ag19
ag17
ag17
ag18
ag20
ag19
ag20
ag18
ag21
ag22
ag20
ag20
ag20
ag17
ag20
ag17
ag21
ag20
ag18
ag22
ag19
ag20
aS'12'
p1082
ag17
ag17
aasg119
(lp1083
I9297
aI12597
aI1970
aI2143
asssI4
(dp1084
I8
(dp1085
I1
(F21792281.0
I35815824
F8243.0
tp1086
sI2
(F21770811.0
I35815824
F8243.0
tp1087
sI4
(F21804191.0
I35815824
F8243.0
tp1088
sI8
(F21844219.0
I35815824
F8243.0
tp1089
sg7
(lp1090
(lp1091
g10
ag11
ag12
ag13
ag14
ag15
ag16
ag17
ag18
ag19
ag20
ag21
ag22
ag23
ag24
ag25
ag26
ag27
ag28
ag29
ag30
ag31
ag32
ag33
ag34
ag35
ag36
ag37
ag38
ag39
ag40
ag41
ag42
ag43
ag44
ag45
ag46
ag47
ag48
ag49
ag50
ag51
ag52
ag53
ag54
aa(lp1092
g15
ag19
ag17
ag18
ag17
ag18
ag17
ag20
ag18
ag17
ag18
ag20
ag20
ag17
aS'14'
p1093
ag20
aS'15'
p1094
ag19
aS'13'
p1095
aS'12'
p1096
ag22
ag17
ag17
ag17
ag17
ag19
aS'11'
p1097
ag17
ag21
aS'12'
p1098
ag20
ag20
ag19
ag20
ag20
ag20
ag19
ag17
ag18
aS'12'
p1099
aS'11'
p1100
ag19
aS'15'
p1101
ag19
ag20
aa(lp1102
g15
aS'14'
p1103
ag18
ag20
ag22
ag19
ag19
ag22
ag19
ag22
ag22
ag22
ag22
ag18
ag22
aS'11'
p1104
ag22
aS'10'
p1105
ag22
ag22
ag21
ag19
ag18
ag15
ag17
aS'12'
p1106
ag17
ag18
ag22
ag19
ag22
ag20
ag18
ag18
ag17
ag20
aS'14'
p1107
ag19
ag17
ag19
ag22
ag17
aS'13'
p1108
ag17
ag17
aa(lp1109
g15
ag19
ag17
ag18
ag17
ag17
ag18
ag17
ag18
ag17
ag17
ag20
ag17
ag17
aS'12'
p1110
ag20
aS'14'
p1111
ag19
aS'13'
p1112
aS'11'
p1113
ag22
ag17
ag17
ag17
ag20
ag19
aS'10'
p1114
ag17
aS'11'
p1115
aS'11'
p1116
ag20
ag20
ag19
ag20
ag20
ag17
ag19
ag17
ag18
aS'11'
p1117
aS'11'
p1118
ag19
aS'14'
p1119
ag19
ag20
aa(lp1120
g15
ag19
ag17
ag17
ag17
ag17
ag17
ag20
ag17
ag17
ag17
ag20
ag20
ag18
aS'12'
p1121
ag19
aS'11'
p1122
ag19
aS'10'
p1123
ag22
ag22
ag17
ag17
ag18
ag20
ag19
ag22
ag18
ag21
ag21
ag20
ag20
ag20
ag17
ag20
ag17
ag19
ag20
ag18
ag21
ag22
ag20
aS'12'
p1124
ag20
ag20
aa(lp1125
g15
ag19
ag17
ag18
ag18
ag18
ag17
ag20
ag18
ag17
ag17
ag17
ag17
ag17
aS'14'
p1126
ag20
aS'15'
p1127
ag19
aS'13'
p1128
aS'12'
p1129
ag22
ag17
ag17
ag17
ag20
ag19
aS'11'
p1130
ag17
ag21
aS'12'
p1131
ag20
ag20
ag19
ag20
ag19
ag20
ag19
ag17
ag18
aS'12'
p1132
aS'11'
p1133
ag19
aS'15'
p1134
ag19
ag19
aa(lp1135
g15
ag19
ag17
ag18
ag17
ag17
ag17
ag17
ag18
ag18
ag17
ag20
ag17
ag17
aS'13'
p1136
ag20
aS'15'
p1137
ag19
aS'14'
p1138
aS'11'
p1139
ag22
ag17
ag17
ag17
ag20
ag19
aS'10'
p1140
ag17
aS'11'
p1141
aS'12'
p1142
ag20
ag20
ag19
ag20
ag20
ag17
ag19
ag17
ag18
aS'11'
p1143
aS'10'
p1144
ag19
aS'15'
p1145
ag19
ag20
aa(lp1146
g15
ag21
ag17
ag17
ag20
ag20
ag20
ag20
ag17
ag20
ag20
ag19
ag19
ag18
aS'10'
p1147
ag22
aS'11'
p1148
ag19
ag22
ag19
ag22
ag20
ag18
ag18
ag20
ag21
ag20
ag18
ag22
ag22
ag20
ag20
ag17
ag18
ag20
ag17
ag21
ag19
ag18
ag22
ag19
ag17
aS'11'
p1149
ag17
ag20
aa(lp1150
g15
ag19
ag17
ag18
ag17
ag19
ag20
ag18
ag18
ag17
ag19
ag18
ag17
ag17
aS'14'
p1151
ag20
aS'15'
p1152
ag19
aS'12'
p1153
aS'10'
p1154
ag22
ag17
ag17
ag17
ag20
ag19
aS'10'
p1155
ag17
aS'12'
p1156
aS'13'
p1157
ag20
ag20
ag20
ag20
ag20
ag17
ag19
ag17
ag18
aS'12'
p1158
aS'10'
p1159
ag20
aS'15'
p1160
ag19
ag20
aasg119
(lp1161
I1876
aI491
aI3977
aI1692
aI1823
aI2300
aI583
aI261
assI16
(dp1162
I1
(F21818496.0
I35815824
F16514.0
tp1163
sI2
(F21773640.0
I35815824
F16514.0
tp1164
sI4
(F21789446.0
I35815824
F16514.0
tp1165
sI8
(F21835140.0
I35815824
F16514.0
tp1166
sg7
(lp1167
(lp1168
g10
ag11
ag12
ag13
ag14
ag15
ag16
ag17
ag18
ag19
ag20
ag21
ag22
ag23
ag24
ag25
ag26
ag27
ag28
ag29
ag30
ag31
ag32
ag33
ag34
ag35
ag36
ag37
ag38
ag39
ag40
ag41
ag42
ag43
ag44
ag45
ag46
ag47
ag48
ag49
ag50
ag51
ag52
ag53
ag54
aa(lp1169
g15
ag19
ag17
ag17
ag17
ag17
ag17
ag17
ag17
ag17
ag17
ag20
ag20
ag18
aS'13'
p1170
ag20
aS'14'
p1171
ag19
aS'12'
p1172
ag22
ag22
ag17
ag17
ag17
ag20
ag20
ag22
ag18
ag21
aS'11'
p1173
ag20
ag20
ag20
ag20
ag20
ag17
ag19
ag17
ag18
aS'10'
p1174
ag19
ag20
aS'14'
p1175
ag20
ag20
aa(lp1176
g15
ag19
ag17
ag18
ag17
ag18
ag17
ag17
ag18
ag17
ag18
ag20
ag20
ag17
aS'14'
p1177
ag20
aS'16'
p1178
ag19
aS'12'
p1179
aS'15'
p1180
ag22
ag17
ag17
ag17
ag17
ag19
aS'10'
p1181
ag17
ag21
aS'12'
p1182
ag20
ag20
ag19
ag20
ag19
ag20
ag19
ag17
ag18
aS'12'
p1183
aS'13'
p1184
ag19
aS'16'
p1185
ag19
ag19
aa(lp1186
g15
aS'13'
p1187
ag18
ag19
aS'10'
p1188
ag19
ag19
ag21
ag22
ag21
ag22
ag21
ag22
ag18
ag22
aS'11'
p1189
ag22
aS'17'
p1190
ag19
ag22
aS'16'
p1191
ag22
ag18
ag15
ag17
aS'14'
p1192
ag17
ag18
ag19
ag19
aS'17'
p1193
ag20
ag18
ag18
ag17
ag19
aS'12'
p1194
ag19
ag18
ag19
ag22
ag17
aS'15'
p1195
ag17
ag17
aa(lp1196
g15
ag19
ag17
ag18
ag17
ag17
ag18
ag20
ag18
ag17
ag17
ag20
ag17
ag17
aS'13'
p1197
ag20
aS'14'
p1198
ag19
aS'12'
p1199
aS'11'
p1200
ag22
ag17
ag17
ag17
ag20
ag19
aS'10'
p1201
ag17
aS'11'
p1202
aS'11'
p1203
ag17
ag20
ag19
ag20
ag20
ag17
ag19
ag17
ag18
aS'11'
p1204
aS'11'
p1205
ag19
aS'14'
p1206
ag19
ag20
aa(lp1207
g15
ag19
ag17
ag18
ag17
ag17
ag17
ag17
ag18
ag18
ag17
ag17
ag20
ag17
aS'13'
p1208
ag20
aS'15'
p1209
ag19
aS'14'
p1210
aS'10'
p1211
ag22
ag17
ag17
ag17
ag20
ag19
aS'10'
p1212
ag17
aS'12'
p1213
aS'11'
p1214
ag20
ag20
ag19
ag20
ag20
ag17
ag19
ag17
ag18
aS'11'
p1215
aS'11'
p1216
ag19
aS'15'
p1217
ag19
ag20
aa(lp1218
g15
ag19
ag18
ag17
ag20
ag17
ag17
ag20
ag17
ag17
ag17
ag20
ag20
ag18
aS'10'
p1219
ag19
ag21
ag19
ag21
aS'12'
p1220
ag19
ag17
ag17
ag18
ag20
ag19
ag19
ag17
ag21
ag22
ag20
ag20
ag17
ag17
ag20
ag17
ag19
ag20
ag18
ag22
aS'11'
p1221
ag20
aS'12'
p1222
ag19
ag20
aa(lp1223
g15
ag19
ag17
ag18
ag17
ag17
ag17
ag17
ag18
ag18
ag17
ag20
ag17
ag17
aS'13'
p1224
ag20
aS'15'
p1225
ag19
aS'14'
p1226
aS'10'
p1227
ag22
ag17
ag17
ag17
ag20
ag19
aS'10'
p1228
ag17
aS'12'
p1229
aS'12'
p1230
ag20
ag20
ag19
ag20
ag20
ag17
ag19
ag17
ag18
aS'12'
p1231
aS'10'
p1232
ag19
aS'15'
p1233
ag19
ag20
aa(lp1234
g15
ag19
ag17
ag17
ag18
ag18
ag18
ag19
ag18
ag17
ag17
ag17
ag20
ag17
aS'15'
p1235
ag20
aS'16'
p1236
ag19
aS'13'
p1237
aS'10'
p1238
ag22
ag17
ag17
ag17
ag20
ag19
aS'10'
p1239
ag17
aS'14'
p1240
aS'12'
p1241
ag20
ag20
ag19
ag20
ag19
ag17
ag19
ag17
ag18
aS'11'
p1242
aS'10'
p1243
ag19
aS'16'
p1244
ag19
ag20
aa(lp1245
g15
ag19
ag17
ag18
ag17
ag18
ag17
ag20
ag18
ag17
ag17
ag17
ag20
ag17
aS'14'
p1246
ag20
aS'15'
p1247
ag19
aS'11'
p1248
aS'11'
p1249
ag22
ag17
ag17
ag17
ag20
ag19
aS'10'
p1250
ag17
aS'10'
p1251
aS'13'
p1252
ag17
ag20
ag19
ag20
ag20
ag17
ag19
ag17
ag18
aS'12'
p1253
aS'11'
p1254
ag19
aS'15'
p1255
ag19
ag20
aa(lp1256
g15
ag19
ag17
ag18
ag17
ag17
ag17
ag17
ag18
ag17
ag17
ag17
ag17
ag17
aS'11'
p1257
ag20
aS'15'
p1258
ag19
aS'14'
p1259
aS'13'
p1260
ag22
ag17
ag17
ag17
ag20
ag19
ag21
ag17
aS'13'
p1261
aS'11'
p1262
ag17
ag20
ag19
ag20
ag20
ag17
ag19
ag17
ag18
aS'11'
p1263
aS'13'
p1264
ag19
aS'15'
p1265
ag19
ag20
aa(lp1266
g15
ag19
ag17
ag18
ag18
ag18
ag17
ag20
ag18
ag17
ag17
ag17
ag17
ag17
aS'13'
p1267
ag20
aS'15'
p1268
ag19
aS'14'
p1269
aS'10'
p1270
ag22
ag17
ag17
ag17
ag20
ag19
aS'10'
p1271
ag17
aS'11'
p1272
aS'12'
p1273
ag20
ag20
ag19
ag20
ag19
ag20
ag19
ag17
ag18
aS'11'
p1274
aS'11'
p1275
ag19
aS'15'
p1276
ag19
ag19
aa(lp1277
g15
ag22
ag17
ag17
ag17
ag17
ag17
ag20
ag17
ag17
ag20
ag20
ag20
ag18
aS'11'
p1278
ag20
aS'12'
p1279
ag19
aS'10'
p1280
ag19
ag22
ag17
ag17
ag18
ag20
ag19
ag19
ag18
ag21
ag21
ag20
ag20
ag20
ag17
ag20
ag17
ag19
ag20
ag18
ag21
ag19
ag20
aS'12'
p1281
ag20
ag20
aa(lp1282
g15
ag21
ag17
ag17
ag20
ag20
ag20
ag20
ag20
ag20
ag20
ag19
ag20
ag18
aS'10'
p1283
ag22
aS'11'
p1284
ag22
ag22
ag19
ag22
ag17
ag18
ag18
ag20
ag22
ag20
ag18
ag22
ag22
ag20
ag20
ag17
ag18
ag20
ag17
ag22
ag20
ag18
ag22
ag19
ag20
aS'11'
p1285
ag17
ag20
aa(lp1286
g15
aS'13'
p1287
ag18
ag17
ag19
ag20
ag20
ag19
ag20
ag19
ag19
ag19
ag19
ag18
ag22
aS'10'
p1288
ag22
ag19
ag22
ag22
ag19
ag20
ag18
ag18
ag20
aS'11'
p1289
ag20
ag18
ag22
ag19
ag20
ag20
ag17
ag18
ag17
ag20
aS'12'
p1290
ag19
ag18
ag19
ag21
ag17
aS'13'
p1291
ag17
ag17
aa(lp1292
g15
ag19
ag17
ag18
ag17
ag19
ag20
ag18
ag18
ag17
ag19
ag18
ag17
ag17
aS'14'
p1293
ag20
aS'15'
p1294
ag19
aS'12'
p1295
aS'10'
p1296
ag22
ag17
ag17
ag17
ag20
ag19
aS'10'
p1297
ag17
aS'12'
p1298
aS'13'
p1299
ag20
ag20
ag20
ag20
ag20
ag17
ag19
ag17
ag18
aS'12'
p1300
aS'10'
p1301
ag20
aS'15'
p1302
ag19
ag20
aa(lp1303
g15
ag19
ag17
ag18
ag17
ag18
ag18
ag17
ag18
ag17
ag17
ag20
ag17
ag17
aS'14'
p1304
ag20
aS'15'
p1305
ag19
aS'13'
p1306
aS'12'
p1307
ag22
ag17
ag17
ag17
ag20
ag19
ag21
ag17
aS'12'
p1308
aS'11'
p1309
ag20
ag20
ag19
ag20
ag19
ag20
ag19
ag17
ag18
aS'11'
p1310
aS'12'
p1311
ag19
aS'15'
p1312
ag19
ag19
aasg119
(lp1313
I964
aI1092
aI340
aI1923
aI975
aI294
aI1068
aI745
aI826
aI1121
aI692
aI490
aI444
aI283
aI243
aI1503
assI2
(dp1314
I1
(F21799527.0
I35815824
F2038.0
tp1315
sI2
(F21830607.0
I35815824
F2038.0
tp1316
sI4
(F21868032.0
I35815824
F2038.0
tp1317
sI8
(F21912320.0
I35815824
F2038.0
tp1318
sg7
(lp1319
(lp1320
g10
ag11
ag12
ag13
ag14
ag15
ag16
ag17
ag18
ag19
ag20
ag21
ag22
ag23
ag24
ag25
ag26
ag27
ag28
ag29
ag30
ag31
ag32
ag33
ag34
ag35
ag36
ag37
ag38
ag39
ag40
ag41
ag42
ag43
ag44
ag45
ag46
ag47
ag48
ag49
ag50
ag51
ag52
ag53
ag54
aa(lp1321
g15
ag19
ag17
ag18
ag17
ag17
ag17
ag17
ag18
ag17
ag17
ag20
ag17
ag17
aS'14'
p1322
ag20
aS'15'
p1323
ag20
aS'13'
p1324
aS'10'
p1325
ag21
ag17
ag17
ag17
ag20
ag19
aS'10'
p1326
ag17
aS'10'
p1327
aS'12'
p1328
ag20
ag20
ag20
ag20
ag20
ag17
ag19
ag17
ag18
aS'11'
p1329
ag21
ag20
aS'15'
p1330
ag20
ag20
aa(lp1331
g15
ag21
ag18
ag17
ag20
ag20
ag20
ag19
ag20
ag20
ag20
ag19
ag19
ag18
aS'10'
p1332
ag22
ag21
ag22
ag22
ag19
ag22
ag20
ag18
ag18
ag20
ag22
ag20
ag18
ag22
ag22
ag20
ag20
ag17
ag18
ag20
ag20
ag21
ag20
ag18
ag22
ag19
ag17
aS'10'
p1333
ag17
ag20
aasg119
(lp1334
I11449
aI1554
assI4
(dp1335
I1
(F21788980.0
I35815824
F4116.0
tp1336
sI2
(F21780031.0
I35815824
F4116.0
tp1337
sI4
(F21821375.0
I35815824
F4116.0
tp1338
sI8
(F21865815.0
I35815824
F4116.0
tp1339
sg7
(lp1340
(lp1341
g10
ag11
ag12
ag13
ag14
ag15
ag16
ag17
ag18
ag19
ag20
ag21
ag22
ag23
ag24
ag25
ag26
ag27
ag28
ag29
ag30
ag31
ag32
ag33
ag34
ag35
ag36
ag37
ag38
ag39
ag40
ag41
ag42
ag43
ag44
ag45
ag46
ag47
ag48
ag49
ag50
ag51
ag52
ag53
ag54
aa(lp1342
g15
ag22
ag17
ag17
ag17
ag17
ag17
ag20
ag17
ag17
ag20
ag20
ag20
ag18
aS'12'
p1343
ag20
aS'11'
p1344
ag19
aS'10'
p1345
ag19
ag22
ag17
ag17
ag18
ag20
ag19
ag19
ag18
ag21
ag21
ag20
ag20
ag20
ag17
ag20
ag17
ag19
ag20
ag18
ag21
ag19
ag20
aS'12'
p1346
ag20
ag20
aa(lp1347
g15
ag19
ag17
ag18
ag17
ag17
ag17
ag17
ag18
ag18
ag17
ag17
ag17
ag17
aS'15'
p1348
ag20
aS'16'
p1349
ag19
aS'14'
p1350
aS'11'
p1351
ag22
ag17
ag17
ag17
ag20
ag19
aS'10'
p1352
ag17
aS'10'
p1353
aS'13'
p1354
ag20
ag20
ag19
ag20
ag20
ag20
ag19
ag17
ag18
aS'12'
p1355
aS'10'
p1356
ag19
aS'16'
p1357
ag19
ag20
aa(lp1358
g15
ag19
ag17
ag18
ag17
ag18
ag18
ag17
ag18
ag17
ag17
ag20
ag17
ag17
aS'14'
p1359
ag20
aS'15'
p1360
ag19
aS'13'
p1361
aS'11'
p1362
ag22
ag17
ag17
ag17
ag20
ag19
aS'10'
p1363
ag17
aS'11'
p1364
aS'12'
p1365
ag20
ag20
ag19
ag20
ag19
ag20
ag19
ag17
ag18
aS'11'
p1366
aS'10'
p1367
ag19
aS'15'
p1368
ag19
ag19
aa(lp1369
g15
aS'13'
p1370
ag18
ag20
ag22
ag19
ag20
ag19
ag20
ag22
ag19
ag22
ag22
ag18
ag21
aS'11'
p1371
ag22
ag22
ag22
ag22
ag22
ag19
ag18
ag15
ag20
aS'10'
p1372
ag20
ag18
ag22
ag19
ag19
ag20
ag17
ag18
ag17
ag20
aS'13'
p1373
ag19
ag18
ag19
ag22
ag17
aS'12'
p1374
ag17
ag17
aasg119
(lp1375
I1811
aI4162
aI6253
aI777
asss.